
mini4.elf:     file format elf32-avr

Sections:
Idx Name          Size      VMA       LMA       File off  Algn
  0 .text         00002688  00000000  00000000  00000094  2**1
                  CONTENTS, ALLOC, LOAD, READONLY, CODE
  1 .data         0000000c  00800060  00002688  0000271c  2**0
                  CONTENTS, ALLOC, LOAD, DATA
  2 .bss          00000005  0080006c  0080006c  00002728  2**0
                  ALLOC
  3 .stab         0000312c  00000000  00000000  00002728  2**2
                  CONTENTS, READONLY, DEBUGGING
  4 .stabstr      00001400  00000000  00000000  00005854  2**0
                  CONTENTS, READONLY, DEBUGGING
  5 .comment      00000024  00000000  00000000  00006c54  2**0
                  CONTENTS, READONLY
  6 .note.gnu.avr.deviceinfo 0000003c  00000000  00000000  00006c78  2**2
                  CONTENTS, READONLY, OCTETS
  7 .debug_aranges 00000060  00000000  00000000  00006cb8  2**3
                  CONTENTS, READONLY, DEBUGGING, OCTETS
  8 .debug_info   00000558  00000000  00000000  00006d18  2**0
                  CONTENTS, READONLY, DEBUGGING, OCTETS
  9 .debug_abbrev 000004df  00000000  00000000  00007270  2**0
                  CONTENTS, READONLY, DEBUGGING, OCTETS
 10 .debug_line   0000019a  00000000  00000000  0000774f  2**0
                  CONTENTS, READONLY, DEBUGGING, OCTETS
 11 .debug_str    00000219  00000000  00000000  000078e9  2**0
                  CONTENTS, READONLY, DEBUGGING, OCTETS

Disassembly of section .text:

00000000 <__vectors>:
       0:	0c 94 2a 00 	jmp	0x54	; 0x54 <__ctors_end>
       4:	0c 94 47 00 	jmp	0x8e	; 0x8e <__bad_interrupt>
       8:	0c 94 47 00 	jmp	0x8e	; 0x8e <__bad_interrupt>
       c:	0c 94 47 00 	jmp	0x8e	; 0x8e <__bad_interrupt>
      10:	0c 94 47 00 	jmp	0x8e	; 0x8e <__bad_interrupt>
      14:	0c 94 47 00 	jmp	0x8e	; 0x8e <__bad_interrupt>
      18:	0c 94 25 06 	jmp	0xc4a	; 0xc4a <__vector_6>
      1c:	0c 94 47 00 	jmp	0x8e	; 0x8e <__bad_interrupt>
      20:	0c 94 47 00 	jmp	0x8e	; 0x8e <__bad_interrupt>
      24:	0c 94 47 00 	jmp	0x8e	; 0x8e <__bad_interrupt>
      28:	0c 94 47 00 	jmp	0x8e	; 0x8e <__bad_interrupt>
      2c:	0c 94 47 00 	jmp	0x8e	; 0x8e <__bad_interrupt>
      30:	0c 94 47 00 	jmp	0x8e	; 0x8e <__bad_interrupt>
      34:	0c 94 47 00 	jmp	0x8e	; 0x8e <__bad_interrupt>
      38:	0c 94 47 00 	jmp	0x8e	; 0x8e <__bad_interrupt>
      3c:	0c 94 47 00 	jmp	0x8e	; 0x8e <__bad_interrupt>
      40:	0c 94 47 00 	jmp	0x8e	; 0x8e <__bad_interrupt>
      44:	0c 94 47 00 	jmp	0x8e	; 0x8e <__bad_interrupt>
      48:	0c 94 47 00 	jmp	0x8e	; 0x8e <__bad_interrupt>
      4c:	0c 94 47 00 	jmp	0x8e	; 0x8e <__bad_interrupt>
      50:	0c 94 47 00 	jmp	0x8e	; 0x8e <__bad_interrupt>

00000054 <__ctors_end>:
      54:	11 24       	eor	r1, r1
      56:	1f be       	out	0x3f, r1	; 63
      58:	cf e5       	ldi	r28, 0x5F	; 95
      5a:	d8 e0       	ldi	r29, 0x08	; 8
      5c:	de bf       	out	0x3e, r29	; 62
      5e:	cd bf       	out	0x3d, r28	; 61

00000060 <__do_copy_data>:
      60:	10 e0       	ldi	r17, 0x00	; 0

00000062 <.Loc.1>:
      62:	a0 e6       	ldi	r26, 0x60	; 96

00000064 <.Loc.2>:
      64:	b0 e0       	ldi	r27, 0x00	; 0

00000066 <.Loc.3>:
      66:	e8 e8       	ldi	r30, 0x88	; 136

00000068 <.Loc.4>:
      68:	f6 e2       	ldi	r31, 0x26	; 38

0000006a <.Loc.5>:
      6a:	02 c0       	rjmp	.+4      	; 0x70 <.L__do_copy_data_start>

0000006c <.L__do_copy_data_loop>:
      6c:	05 90       	lpm	r0, Z+

0000006e <.Loc.7>:
      6e:	0d 92       	st	X+, r0

00000070 <.L__do_copy_data_start>:
      70:	ac 36       	cpi	r26, 0x6C	; 108

00000072 <.Loc.9>:
      72:	b1 07       	cpc	r27, r17

00000074 <.Loc.10>:
      74:	d9 f7       	brne	.-10     	; 0x6c <.L__do_copy_data_loop>

00000076 <__do_clear_bss>:
      76:	20 e0       	ldi	r18, 0x00	; 0

00000078 <.Loc.1>:
      78:	ac e6       	ldi	r26, 0x6C	; 108

0000007a <.Loc.2>:
      7a:	b0 e0       	ldi	r27, 0x00	; 0

0000007c <.Loc.3>:
      7c:	01 c0       	rjmp	.+2      	; 0x80 <.Loc.5>

0000007e <.Loc.4>:
      7e:	1d 92       	st	X+, r1

00000080 <.Loc.5>:
      80:	a1 37       	cpi	r26, 0x71	; 113

00000082 <.Loc.6>:
      82:	b2 07       	cpc	r27, r18

00000084 <.Loc.7>:
      84:	e1 f7       	brne	.-8      	; 0x7e <.Loc.4>

00000086 <L0^A>:
      86:	0e 94 51 02 	call	0x4a2	; 0x4a2 <main>
      8a:	0c 94 42 13 	jmp	0x2684	; 0x2684 <_exit>

0000008e <__bad_interrupt>:
      8e:	0c 94 00 00 	jmp	0	; 0x0 <__vectors>

00000092 <Ultrasonic_init>:
      92:	cf 93       	push	r28
      94:	df 93       	push	r29
      96:	00 d0       	rcall	.+0      	; 0x98 <L0^A>

00000098 <L0^A>:
      98:	cd b7       	in	r28, 0x3d	; 61
      9a:	de b7       	in	r29, 0x3e	; 62

0000009c <.LM1>:
      9c:	82 e0       	ldi	r24, 0x02	; 2
      9e:	89 83       	std	Y+1, r24	; 0x01

000000a0 <.LM2>:
      a0:	81 e0       	ldi	r24, 0x01	; 1
      a2:	8a 83       	std	Y+2, r24	; 0x02

000000a4 <.LM3>:
      a4:	ce 01       	movw	r24, r28
      a6:	01 96       	adiw	r24, 0x01	; 1
      a8:	0e 94 5a 06 	call	0xcb4	; 0xcb4 <ICU_init>

000000ac <.LM4>:
      ac:	85 e6       	ldi	r24, 0x65	; 101
      ae:	90 e0       	ldi	r25, 0x00	; 0
      b0:	0e 94 b2 06 	call	0xd64	; 0xd64 <ICU_setCallBack>

000000b4 <.LM5>:
      b4:	41 e0       	ldi	r20, 0x01	; 1
      b6:	65 e0       	ldi	r22, 0x05	; 5
      b8:	81 e0       	ldi	r24, 0x01	; 1
      ba:	0e 94 03 03 	call	0x606	; 0x606 <GPIO_setupPinDirection>

000000be <.LM6>:
      be:	00 00       	nop
      c0:	0f 90       	pop	r0
      c2:	0f 90       	pop	r0
      c4:	df 91       	pop	r29
      c6:	cf 91       	pop	r28
      c8:	08 95       	ret

000000ca <ultrasonic_edge>:
      ca:	cf 93       	push	r28
      cc:	df 93       	push	r29
      ce:	cd b7       	in	r28, 0x3d	; 61
      d0:	de b7       	in	r29, 0x3e	; 62

000000d2 <.LM8>:
      d2:	80 91 6e 00 	lds	r24, 0x006E	; 0x80006e <counter>
      d6:	8f 5f       	subi	r24, 0xFF	; 255
      d8:	80 93 6e 00 	sts	0x006E, r24	; 0x80006e <counter>

000000dc <.LM9>:
      dc:	80 91 6e 00 	lds	r24, 0x006E	; 0x80006e <counter>

000000e0 <.LM10>:
      e0:	81 30       	cpi	r24, 0x01	; 1
      e2:	31 f4       	brne	.+12     	; 0xf0 <.L3>

000000e4 <.LM11>:
      e4:	0e 94 f4 06 	call	0xde8	; 0xde8 <ICU_clearTimerValue>

000000e8 <.LM12>:
      e8:	80 e0       	ldi	r24, 0x00	; 0
      ea:	0e 94 c5 06 	call	0xd8a	; 0xd8a <ICU_setEdgeDetectionType>

000000ee <.LM13>:
      ee:	0f c0       	rjmp	.+30     	; 0x10e <.L5>

000000f0 <.L3>:
      f0:	80 91 6e 00 	lds	r24, 0x006E	; 0x80006e <counter>

000000f4 <.LM15>:
      f4:	82 30       	cpi	r24, 0x02	; 2
      f6:	59 f4       	brne	.+22     	; 0x10e <.L5>

000000f8 <.LM16>:
      f8:	0e 94 e8 06 	call	0xdd0	; 0xdd0 <ICU_getInputCaptureValue>

000000fc <.LM17>:
      fc:	90 93 6d 00 	sts	0x006D, r25	; 0x80006d <high_time+0x1>
     100:	80 93 6c 00 	sts	0x006C, r24	; 0x80006c <high_time>

00000104 <.LM18>:
     104:	0e 94 f4 06 	call	0xde8	; 0xde8 <ICU_clearTimerValue>

00000108 <.LM19>:
     108:	81 e0       	ldi	r24, 0x01	; 1
     10a:	0e 94 c5 06 	call	0xd8a	; 0xd8a <ICU_setEdgeDetectionType>

0000010e <.L5>:
     10e:	00 00       	nop
     110:	df 91       	pop	r29
     112:	cf 91       	pop	r28
     114:	08 95       	ret

00000116 <Ultrasonic_Trigger>:
     116:	cf 93       	push	r28
     118:	df 93       	push	r29
     11a:	cd b7       	in	r28, 0x3d	; 61
     11c:	de b7       	in	r29, 0x3e	; 62
     11e:	cc 54       	subi	r28, 0x4C	; 76
     120:	d1 09       	sbc	r29, r1
     122:	0f b6       	in	r0, 0x3f	; 63
     124:	f8 94       	cli
     126:	de bf       	out	0x3e, r29	; 62
     128:	0f be       	out	0x3f, r0	; 63
     12a:	cd bf       	out	0x3d, r28	; 61

0000012c <.LM22>:
     12c:	41 e0       	ldi	r20, 0x01	; 1
     12e:	65 e0       	ldi	r22, 0x05	; 5
     130:	81 e0       	ldi	r24, 0x01	; 1
     132:	0e 94 f4 03 	call	0x7e8	; 0x7e8 <GPIO_writePin>
     136:	80 e0       	ldi	r24, 0x00	; 0
     138:	90 e0       	ldi	r25, 0x00	; 0
     13a:	a0 e2       	ldi	r26, 0x20	; 32
     13c:	b1 e4       	ldi	r27, 0x41	; 65
     13e:	89 83       	std	Y+1, r24	; 0x01
     140:	9a 83       	std	Y+2, r25	; 0x02
     142:	ab 83       	std	Y+3, r26	; 0x03
     144:	bc 83       	std	Y+4, r27	; 0x04

00000146 <.LM23>:
     146:	2b ea       	ldi	r18, 0xAB	; 171
     148:	3a ea       	ldi	r19, 0xAA	; 170
     14a:	4a e2       	ldi	r20, 0x2A	; 42
     14c:	50 e4       	ldi	r21, 0x40	; 64
     14e:	69 81       	ldd	r22, Y+1	; 0x01
     150:	7a 81       	ldd	r23, Y+2	; 0x02
     152:	8b 81       	ldd	r24, Y+3	; 0x03
     154:	9c 81       	ldd	r25, Y+4	; 0x04
     156:	0e 94 95 12 	call	0x252a	; 0x252a <__mulsf3>
     15a:	6d a3       	std	Y+37, r22	; 0x25
     15c:	7e a3       	std	Y+38, r23	; 0x26
     15e:	8f a3       	std	Y+39, r24	; 0x27
     160:	98 a7       	std	Y+40, r25	; 0x28
     162:	8d a1       	ldd	r24, Y+37	; 0x25
     164:	9e a1       	ldd	r25, Y+38	; 0x26
     166:	af a1       	ldd	r26, Y+39	; 0x27
     168:	b8 a5       	ldd	r27, Y+40	; 0x28
     16a:	8d 83       	std	Y+5, r24	; 0x05
     16c:	9e 83       	std	Y+6, r25	; 0x06
     16e:	af 83       	std	Y+7, r26	; 0x07
     170:	b8 87       	std	Y+8, r27	; 0x08

00000172 <.LM24>:
     172:	89 81       	ldd	r24, Y+1	; 0x01
     174:	9a 81       	ldd	r25, Y+2	; 0x02
     176:	ab 81       	ldd	r26, Y+3	; 0x03
     178:	bc 81       	ldd	r27, Y+4	; 0x04
     17a:	89 a7       	std	Y+41, r24	; 0x29
     17c:	9a a7       	std	Y+42, r25	; 0x2a
     17e:	ab a7       	std	Y+43, r26	; 0x2b
     180:	bc a7       	std	Y+44, r27	; 0x2c
     182:	29 a5       	ldd	r18, Y+41	; 0x29
     184:	3a a5       	ldd	r19, Y+42	; 0x2a
     186:	4b a5       	ldd	r20, Y+43	; 0x2b
     188:	5c a5       	ldd	r21, Y+44	; 0x2c
     18a:	69 a5       	ldd	r22, Y+41	; 0x29
     18c:	7a a5       	ldd	r23, Y+42	; 0x2a
     18e:	8b a5       	ldd	r24, Y+43	; 0x2b
     190:	9c a5       	ldd	r25, Y+44	; 0x2c
     192:	0e 94 cc 10 	call	0x2198	; 0x2198 <__addsf3>
     196:	6d a7       	std	Y+45, r22	; 0x2d
     198:	7e a7       	std	Y+46, r23	; 0x2e
     19a:	8f a7       	std	Y+47, r24	; 0x2f
     19c:	98 ab       	std	Y+48, r25	; 0x30
     19e:	8d a5       	ldd	r24, Y+45	; 0x2d
     1a0:	9e a5       	ldd	r25, Y+46	; 0x2e
     1a2:	af a5       	ldd	r26, Y+47	; 0x2f
     1a4:	b8 a9       	ldd	r27, Y+48	; 0x30
     1a6:	89 87       	std	Y+9, r24	; 0x09
     1a8:	9a 87       	std	Y+10, r25	; 0x0a
     1aa:	ab 87       	std	Y+11, r26	; 0x0b
     1ac:	bc 87       	std	Y+12, r27	; 0x0c

000001ae <.LM25>:
     1ae:	20 e0       	ldi	r18, 0x00	; 0
     1b0:	30 e0       	ldi	r19, 0x00	; 0
     1b2:	40 e8       	ldi	r20, 0x80	; 128
     1b4:	5f e3       	ldi	r21, 0x3F	; 63
     1b6:	6d 81       	ldd	r22, Y+5	; 0x05
     1b8:	7e 81       	ldd	r23, Y+6	; 0x06
     1ba:	8f 81       	ldd	r24, Y+7	; 0x07
     1bc:	98 85       	ldd	r25, Y+8	; 0x08
     1be:	0e 94 38 11 	call	0x2270	; 0x2270 <__cmpsf2>
     1c2:	88 23       	and	r24, r24
     1c4:	1c f4       	brge	.+6      	; 0x1cc <.L28>

000001c6 <.LM26>:
     1c6:	81 e0       	ldi	r24, 0x01	; 1
     1c8:	8d 87       	std	Y+13, r24	; 0x0d
     1ca:	eb c0       	rjmp	.+470    	; 0x3a2 <.L9>

000001cc <.L28>:
     1cc:	20 e0       	ldi	r18, 0x00	; 0
     1ce:	3f ef       	ldi	r19, 0xFF	; 255
     1d0:	4f e7       	ldi	r20, 0x7F	; 127
     1d2:	57 e4       	ldi	r21, 0x47	; 71
     1d4:	69 85       	ldd	r22, Y+9	; 0x09
     1d6:	7a 85       	ldd	r23, Y+10	; 0x0a
     1d8:	8b 85       	ldd	r24, Y+11	; 0x0b
     1da:	9c 85       	ldd	r25, Y+12	; 0x0c
     1dc:	0e 94 90 12 	call	0x2520	; 0x2520 <__gesf2>
     1e0:	18 16       	cp	r1, r24
     1e2:	0c f0       	brlt	.+2      	; 0x1e6 <.LM28>

000001e4 <L0^A>:
     1e4:	a4 c0       	rjmp	.+328    	; 0x32e <.L29>

000001e6 <.LM28>:
     1e6:	20 e0       	ldi	r18, 0x00	; 0
     1e8:	30 e0       	ldi	r19, 0x00	; 0
     1ea:	4a e7       	ldi	r20, 0x7A	; 122
     1ec:	54 e4       	ldi	r21, 0x44	; 68
     1ee:	69 81       	ldd	r22, Y+1	; 0x01
     1f0:	7a 81       	ldd	r23, Y+2	; 0x02
     1f2:	8b 81       	ldd	r24, Y+3	; 0x03
     1f4:	9c 81       	ldd	r25, Y+4	; 0x04
     1f6:	0e 94 3d 11 	call	0x227a	; 0x227a <__divsf3>
     1fa:	69 ab       	std	Y+49, r22	; 0x31
     1fc:	7a ab       	std	Y+50, r23	; 0x32
     1fe:	8b ab       	std	Y+51, r24	; 0x33
     200:	9c ab       	std	Y+52, r25	; 0x34
     202:	89 a9       	ldd	r24, Y+49	; 0x31
     204:	9a a9       	ldd	r25, Y+50	; 0x32
     206:	ab a9       	ldd	r26, Y+51	; 0x33
     208:	bc a9       	ldd	r27, Y+52	; 0x34
     20a:	8e 87       	std	Y+14, r24	; 0x0e
     20c:	9f 87       	std	Y+15, r25	; 0x0f
     20e:	a8 8b       	std	Y+16, r26	; 0x10
     210:	b9 8b       	std	Y+17, r27	; 0x11

00000212 <.LM29>:
     212:	20 e0       	ldi	r18, 0x00	; 0
     214:	30 e0       	ldi	r19, 0x00	; 0
     216:	4a ef       	ldi	r20, 0xFA	; 250
     218:	54 e4       	ldi	r21, 0x44	; 68
     21a:	6e 85       	ldd	r22, Y+14	; 0x0e
     21c:	7f 85       	ldd	r23, Y+15	; 0x0f
     21e:	88 89       	ldd	r24, Y+16	; 0x10
     220:	99 89       	ldd	r25, Y+17	; 0x11
     222:	0e 94 95 12 	call	0x252a	; 0x252a <__mulsf3>
     226:	6d ab       	std	Y+53, r22	; 0x35
     228:	7e ab       	std	Y+54, r23	; 0x36
     22a:	8f ab       	std	Y+55, r24	; 0x37
     22c:	98 af       	std	Y+56, r25	; 0x38
     22e:	8d a9       	ldd	r24, Y+53	; 0x35
     230:	9e a9       	ldd	r25, Y+54	; 0x36
     232:	af a9       	ldd	r26, Y+55	; 0x37
     234:	b8 ad       	ldd	r27, Y+56	; 0x38
     236:	8a 8b       	std	Y+18, r24	; 0x12
     238:	9b 8b       	std	Y+19, r25	; 0x13
     23a:	ac 8b       	std	Y+20, r26	; 0x14
     23c:	bd 8b       	std	Y+21, r27	; 0x15

0000023e <.LM30>:
     23e:	20 e0       	ldi	r18, 0x00	; 0
     240:	30 e0       	ldi	r19, 0x00	; 0
     242:	40 e8       	ldi	r20, 0x80	; 128
     244:	5f e3       	ldi	r21, 0x3F	; 63
     246:	6a 89       	ldd	r22, Y+18	; 0x12
     248:	7b 89       	ldd	r23, Y+19	; 0x13
     24a:	8c 89       	ldd	r24, Y+20	; 0x14
     24c:	9d 89       	ldd	r25, Y+21	; 0x15
     24e:	0e 94 38 11 	call	0x2270	; 0x2270 <__cmpsf2>
     252:	88 23       	and	r24, r24
     254:	2c f4       	brge	.+10     	; 0x260 <.L30>

00000256 <.LM31>:
     256:	81 e0       	ldi	r24, 0x01	; 1
     258:	90 e0       	ldi	r25, 0x00	; 0
     25a:	9f 8b       	std	Y+23, r25	; 0x17
     25c:	8e 8b       	std	Y+22, r24	; 0x16
     25e:	5b c0       	rjmp	.+182    	; 0x316 <.L14>

00000260 <.L30>:
     260:	20 e0       	ldi	r18, 0x00	; 0
     262:	3f ef       	ldi	r19, 0xFF	; 255
     264:	4f e7       	ldi	r20, 0x7F	; 127
     266:	57 e4       	ldi	r21, 0x47	; 71
     268:	6a 89       	ldd	r22, Y+18	; 0x12
     26a:	7b 89       	ldd	r23, Y+19	; 0x13
     26c:	8c 89       	ldd	r24, Y+20	; 0x14
     26e:	9d 89       	ldd	r25, Y+21	; 0x15
     270:	0e 94 90 12 	call	0x2520	; 0x2520 <__gesf2>
     274:	18 16       	cp	r1, r24
     276:	0c f0       	brlt	.+2      	; 0x27a <.LM33>

00000278 <L0^A>:
     278:	3c c0       	rjmp	.+120    	; 0x2f2 <.L31>

0000027a <.LM33>:
     27a:	20 e0       	ldi	r18, 0x00	; 0
     27c:	30 e0       	ldi	r19, 0x00	; 0
     27e:	40 e2       	ldi	r20, 0x20	; 32
     280:	51 e4       	ldi	r21, 0x41	; 65
     282:	6e 85       	ldd	r22, Y+14	; 0x0e
     284:	7f 85       	ldd	r23, Y+15	; 0x0f
     286:	88 89       	ldd	r24, Y+16	; 0x10
     288:	99 89       	ldd	r25, Y+17	; 0x11
     28a:	0e 94 95 12 	call	0x252a	; 0x252a <__mulsf3>
     28e:	69 af       	std	Y+57, r22	; 0x39
     290:	7a af       	std	Y+58, r23	; 0x3a
     292:	8b af       	std	Y+59, r24	; 0x3b
     294:	9c af       	std	Y+60, r25	; 0x3c
     296:	89 ad       	ldd	r24, Y+57	; 0x39
     298:	9a ad       	ldd	r25, Y+58	; 0x3a
     29a:	ab ad       	ldd	r26, Y+59	; 0x3b
     29c:	bc ad       	ldd	r27, Y+60	; 0x3c
     29e:	89 a3       	std	Y+33, r24	; 0x21
     2a0:	9a a3       	std	Y+34, r25	; 0x22
     2a2:	ab a3       	std	Y+35, r26	; 0x23
     2a4:	bc a3       	std	Y+36, r27	; 0x24

000002a6 <.LM34>:
     2a6:	69 a1       	ldd	r22, Y+33	; 0x21
     2a8:	7a a1       	ldd	r23, Y+34	; 0x22
     2aa:	8b a1       	ldd	r24, Y+35	; 0x23
     2ac:	9c a1       	ldd	r25, Y+36	; 0x24
     2ae:	0e 94 af 11 	call	0x235e	; 0x235e <__fixunssfsi>
     2b2:	21 96       	adiw	r28, 0x01	; 1
     2b4:	6c af       	std	Y+60, r22	; 0x3c
     2b6:	7d af       	std	Y+61, r23	; 0x3d
     2b8:	8e af       	std	Y+62, r24	; 0x3e
     2ba:	9f af       	std	Y+63, r25	; 0x3f
     2bc:	21 97       	sbiw	r28, 0x01	; 1
     2be:	ad ad       	ldd	r26, Y+61	; 0x3d
     2c0:	be ad       	ldd	r27, Y+62	; 0x3e
     2c2:	bf 8b       	std	Y+23, r27	; 0x17
     2c4:	ae 8b       	std	Y+22, r26	; 0x16

000002c6 <.LM35>:
     2c6:	10 c0       	rjmp	.+32     	; 0x2e8 <.L17>

000002c8 <.L18>:
     2c8:	88 ec       	ldi	r24, 0xC8	; 200
     2ca:	90 e0       	ldi	r25, 0x00	; 0
     2cc:	99 8f       	std	Y+25, r25	; 0x19
     2ce:	88 8f       	std	Y+24, r24	; 0x18

000002d0 <.LM36>:
     2d0:	88 8d       	ldd	r24, Y+24	; 0x18
     2d2:	99 8d       	ldd	r25, Y+25	; 0x19

000002d4 <.L1^B1>:
     2d4:	01 97       	sbiw	r24, 0x01	; 1
     2d6:	f1 f7       	brne	.-4      	; 0x2d4 <.L1^B1>
     2d8:	99 8f       	std	Y+25, r25	; 0x19
     2da:	88 8f       	std	Y+24, r24	; 0x18

000002dc <.LM37>:
	...

000002de <.LM38>:
     2de:	8e 89       	ldd	r24, Y+22	; 0x16
     2e0:	9f 89       	ldd	r25, Y+23	; 0x17
     2e2:	01 97       	sbiw	r24, 0x01	; 1
     2e4:	9f 8b       	std	Y+23, r25	; 0x17
     2e6:	8e 8b       	std	Y+22, r24	; 0x16

000002e8 <.L17>:
     2e8:	8e 89       	ldd	r24, Y+22	; 0x16
     2ea:	9f 89       	ldd	r25, Y+23	; 0x17
     2ec:	89 2b       	or	r24, r25
     2ee:	61 f7       	brne	.-40     	; 0x2c8 <.L18>

000002f0 <.LM40>:
     2f0:	1d c0       	rjmp	.+58     	; 0x32c <.L19>

000002f2 <.L31>:
     2f2:	6a 89       	ldd	r22, Y+18	; 0x12
     2f4:	7b 89       	ldd	r23, Y+19	; 0x13
     2f6:	8c 89       	ldd	r24, Y+20	; 0x14
     2f8:	9d 89       	ldd	r25, Y+21	; 0x15
     2fa:	0e 94 af 11 	call	0x235e	; 0x235e <__fixunssfsi>
     2fe:	25 96       	adiw	r28, 0x05	; 5
     300:	6c af       	std	Y+60, r22	; 0x3c
     302:	7d af       	std	Y+61, r23	; 0x3d
     304:	8e af       	std	Y+62, r24	; 0x3e
     306:	9f af       	std	Y+63, r25	; 0x3f
     308:	25 97       	sbiw	r28, 0x05	; 5
     30a:	23 96       	adiw	r28, 0x03	; 3
     30c:	8e ad       	ldd	r24, Y+62	; 0x3e
     30e:	9f ad       	ldd	r25, Y+63	; 0x3f
     310:	23 97       	sbiw	r28, 0x03	; 3
     312:	9f 8b       	std	Y+23, r25	; 0x17
     314:	8e 8b       	std	Y+22, r24	; 0x16

00000316 <.L14>:
     316:	8e 89       	ldd	r24, Y+22	; 0x16
     318:	9f 89       	ldd	r25, Y+23	; 0x17
     31a:	9b 8f       	std	Y+27, r25	; 0x1b
     31c:	8a 8f       	std	Y+26, r24	; 0x1a

0000031e <.LM42>:
     31e:	8a 8d       	ldd	r24, Y+26	; 0x1a
     320:	9b 8d       	ldd	r25, Y+27	; 0x1b

00000322 <.L1^B2>:
     322:	01 97       	sbiw	r24, 0x01	; 1
     324:	f1 f7       	brne	.-4      	; 0x322 <.L1^B2>
     326:	9b 8f       	std	Y+27, r25	; 0x1b
     328:	8a 8f       	std	Y+26, r24	; 0x1a

0000032a <.LM43>:
	...

0000032c <.L19>:
     32c:	41 c0       	rjmp	.+130    	; 0x3b0 <.L20>

0000032e <.L29>:
     32e:	20 e0       	ldi	r18, 0x00	; 0
     330:	30 e0       	ldi	r19, 0x00	; 0
     332:	4f e7       	ldi	r20, 0x7F	; 127
     334:	53 e4       	ldi	r21, 0x43	; 67
     336:	6d 81       	ldd	r22, Y+5	; 0x05
     338:	7e 81       	ldd	r23, Y+6	; 0x06
     33a:	8f 81       	ldd	r24, Y+7	; 0x07
     33c:	98 85       	ldd	r25, Y+8	; 0x08
     33e:	0e 94 90 12 	call	0x2520	; 0x2520 <__gesf2>
     342:	18 16       	cp	r1, r24
     344:	f4 f4       	brge	.+60     	; 0x382 <.L32>

00000346 <.LM46>:
     346:	69 85       	ldd	r22, Y+9	; 0x09
     348:	7a 85       	ldd	r23, Y+10	; 0x0a
     34a:	8b 85       	ldd	r24, Y+11	; 0x0b
     34c:	9c 85       	ldd	r25, Y+12	; 0x0c
     34e:	0e 94 af 11 	call	0x235e	; 0x235e <__fixunssfsi>
     352:	29 96       	adiw	r28, 0x09	; 9
     354:	6c af       	std	Y+60, r22	; 0x3c
     356:	7d af       	std	Y+61, r23	; 0x3d
     358:	8e af       	std	Y+62, r24	; 0x3e
     35a:	9f af       	std	Y+63, r25	; 0x3f
     35c:	29 97       	sbiw	r28, 0x09	; 9
     35e:	27 96       	adiw	r28, 0x07	; 7
     360:	ae ad       	ldd	r26, Y+62	; 0x3e
     362:	bf ad       	ldd	r27, Y+63	; 0x3f
     364:	27 97       	sbiw	r28, 0x07	; 7
     366:	bd 8f       	std	Y+29, r27	; 0x1d
     368:	ac 8f       	std	Y+28, r26	; 0x1c
     36a:	8c 8d       	ldd	r24, Y+28	; 0x1c
     36c:	9d 8d       	ldd	r25, Y+29	; 0x1d
     36e:	9f 8f       	std	Y+31, r25	; 0x1f
     370:	8e 8f       	std	Y+30, r24	; 0x1e

00000372 <.LM47>:
     372:	8e 8d       	ldd	r24, Y+30	; 0x1e
     374:	9f 8d       	ldd	r25, Y+31	; 0x1f

00000376 <.L1^B3>:
     376:	01 97       	sbiw	r24, 0x01	; 1
     378:	f1 f7       	brne	.-4      	; 0x376 <.L1^B3>
     37a:	9f 8f       	std	Y+31, r25	; 0x1f
     37c:	8e 8f       	std	Y+30, r24	; 0x1e

0000037e <.LM48>:
	...

00000380 <.LM49>:
     380:	17 c0       	rjmp	.+46     	; 0x3b0 <.L20>

00000382 <.L32>:
     382:	6d 81       	ldd	r22, Y+5	; 0x05
     384:	7e 81       	ldd	r23, Y+6	; 0x06
     386:	8f 81       	ldd	r24, Y+7	; 0x07
     388:	98 85       	ldd	r25, Y+8	; 0x08
     38a:	0e 94 af 11 	call	0x235e	; 0x235e <__fixunssfsi>
     38e:	2d 96       	adiw	r28, 0x0d	; 13
     390:	6c af       	std	Y+60, r22	; 0x3c
     392:	7d af       	std	Y+61, r23	; 0x3d
     394:	8e af       	std	Y+62, r24	; 0x3e
     396:	9f af       	std	Y+63, r25	; 0x3f
     398:	2d 97       	sbiw	r28, 0x0d	; 13
     39a:	2a 96       	adiw	r28, 0x0a	; 10
     39c:	bf ad       	ldd	r27, Y+63	; 0x3f
     39e:	2a 97       	sbiw	r28, 0x0a	; 10
     3a0:	bd 87       	std	Y+13, r27	; 0x0d

000003a2 <.L9>:
     3a2:	8d 85       	ldd	r24, Y+13	; 0x0d
     3a4:	88 a3       	std	Y+32, r24	; 0x20

000003a6 <.LM51>:
     3a6:	88 a1       	ldd	r24, Y+32	; 0x20

000003a8 <.L1^B4>:
     3a8:	8a 95       	dec	r24
     3aa:	f1 f7       	brne	.-4      	; 0x3a8 <.L1^B4>
     3ac:	88 a3       	std	Y+32, r24	; 0x20

000003ae <.LM52>:
	...

000003b0 <.L20>:
     3b0:	40 e0       	ldi	r20, 0x00	; 0
     3b2:	65 e0       	ldi	r22, 0x05	; 5
     3b4:	81 e0       	ldi	r24, 0x01	; 1
     3b6:	0e 94 f4 03 	call	0x7e8	; 0x7e8 <GPIO_writePin>

000003ba <.LM54>:
     3ba:	00 00       	nop
     3bc:	c4 5b       	subi	r28, 0xB4	; 180
     3be:	df 4f       	sbci	r29, 0xFF	; 255
     3c0:	0f b6       	in	r0, 0x3f	; 63
     3c2:	f8 94       	cli
     3c4:	de bf       	out	0x3e, r29	; 62
     3c6:	0f be       	out	0x3f, r0	; 63
     3c8:	cd bf       	out	0x3d, r28	; 61
     3ca:	df 91       	pop	r29
     3cc:	cf 91       	pop	r28
     3ce:	08 95       	ret

000003d0 <Ultrasonic_readDistance>:
     3d0:	cf 93       	push	r28
     3d2:	df 93       	push	r29
     3d4:	cd b7       	in	r28, 0x3d	; 61
     3d6:	de b7       	in	r29, 0x3e	; 62
     3d8:	6c 97       	sbiw	r28, 0x1c	; 28
     3da:	0f b6       	in	r0, 0x3f	; 63
     3dc:	f8 94       	cli
     3de:	de bf       	out	0x3e, r29	; 62
     3e0:	0f be       	out	0x3f, r0	; 63
     3e2:	cd bf       	out	0x3d, r28	; 61

000003e4 <.LM56>:
     3e4:	0e 94 8b 00 	call	0x116	; 0x116 <Ultrasonic_Trigger>

000003e8 <.LM57>:
	...

000003ea <.L34>:
     3ea:	80 91 6e 00 	lds	r24, 0x006E	; 0x80006e <counter>

000003ee <.LM59>:
     3ee:	82 30       	cpi	r24, 0x02	; 2
     3f0:	e1 f7       	brne	.-8      	; 0x3ea <.L34>

000003f2 <.LM60>:
     3f2:	10 92 6e 00 	sts	0x006E, r1	; 0x80006e <counter>

000003f6 <.LM61>:
     3f6:	80 91 6c 00 	lds	r24, 0x006C	; 0x80006c <high_time>
     3fa:	90 91 6d 00 	lds	r25, 0x006D	; 0x80006d <high_time+0x1>
     3fe:	9c 01       	movw	r18, r24
     400:	40 e0       	ldi	r20, 0x00	; 0
     402:	50 e0       	ldi	r21, 0x00	; 0
     404:	2d 87       	std	Y+13, r18	; 0x0d
     406:	3e 87       	std	Y+14, r19	; 0x0e
     408:	4f 87       	std	Y+15, r20	; 0x0f
     40a:	58 8b       	std	Y+16, r21	; 0x10
     40c:	6d 85       	ldd	r22, Y+13	; 0x0d
     40e:	7e 85       	ldd	r23, Y+14	; 0x0e
     410:	8f 85       	ldd	r24, Y+15	; 0x0f
     412:	98 89       	ldd	r25, Y+16	; 0x10
     414:	0e 94 de 11 	call	0x23bc	; 0x23bc <__floatunsisf>
     418:	69 83       	std	Y+1, r22	; 0x01
     41a:	7a 83       	std	Y+2, r23	; 0x02
     41c:	8b 83       	std	Y+3, r24	; 0x03
     41e:	9c 83       	std	Y+4, r25	; 0x04

00000420 <.LM62>:
     420:	20 e0       	ldi	r18, 0x00	; 0
     422:	34 e2       	ldi	r19, 0x24	; 36
     424:	44 e7       	ldi	r20, 0x74	; 116
     426:	59 e4       	ldi	r21, 0x49	; 73
     428:	69 81       	ldd	r22, Y+1	; 0x01
     42a:	7a 81       	ldd	r23, Y+2	; 0x02
     42c:	8b 81       	ldd	r24, Y+3	; 0x03
     42e:	9c 81       	ldd	r25, Y+4	; 0x04
     430:	0e 94 3d 11 	call	0x227a	; 0x227a <__divsf3>
     434:	69 8b       	std	Y+17, r22	; 0x11
     436:	7a 8b       	std	Y+18, r23	; 0x12
     438:	8b 8b       	std	Y+19, r24	; 0x13
     43a:	9c 8b       	std	Y+20, r25	; 0x14
     43c:	89 89       	ldd	r24, Y+17	; 0x11
     43e:	9a 89       	ldd	r25, Y+18	; 0x12
     440:	ab 89       	ldd	r26, Y+19	; 0x13
     442:	bc 89       	ldd	r27, Y+20	; 0x14
     444:	8d 83       	std	Y+5, r24	; 0x05
     446:	9e 83       	std	Y+6, r25	; 0x06
     448:	af 83       	std	Y+7, r26	; 0x07
     44a:	b8 87       	std	Y+8, r27	; 0x08

0000044c <.LM63>:
     44c:	20 e0       	ldi	r18, 0x00	; 0
     44e:	30 ed       	ldi	r19, 0xD0	; 208
     450:	44 e8       	ldi	r20, 0x84	; 132
     452:	56 e4       	ldi	r21, 0x46	; 70
     454:	6d 81       	ldd	r22, Y+5	; 0x05
     456:	7e 81       	ldd	r23, Y+6	; 0x06
     458:	8f 81       	ldd	r24, Y+7	; 0x07
     45a:	98 85       	ldd	r25, Y+8	; 0x08
     45c:	0e 94 95 12 	call	0x252a	; 0x252a <__mulsf3>
     460:	6d 8b       	std	Y+21, r22	; 0x15
     462:	7e 8b       	std	Y+22, r23	; 0x16
     464:	8f 8b       	std	Y+23, r24	; 0x17
     466:	98 8f       	std	Y+24, r25	; 0x18
     468:	2d 89       	ldd	r18, Y+21	; 0x15
     46a:	3e 89       	ldd	r19, Y+22	; 0x16
     46c:	4f 89       	ldd	r20, Y+23	; 0x17
     46e:	58 8d       	ldd	r21, Y+24	; 0x18
     470:	29 87       	std	Y+9, r18	; 0x09
     472:	3a 87       	std	Y+10, r19	; 0x0a
     474:	4b 87       	std	Y+11, r20	; 0x0b
     476:	5c 87       	std	Y+12, r21	; 0x0c
     478:	69 85       	ldd	r22, Y+9	; 0x09
     47a:	7a 85       	ldd	r23, Y+10	; 0x0a
     47c:	8b 85       	ldd	r24, Y+11	; 0x0b
     47e:	9c 85       	ldd	r25, Y+12	; 0x0c
     480:	0e 94 af 11 	call	0x235e	; 0x235e <__fixunssfsi>
     484:	69 8f       	std	Y+25, r22	; 0x19
     486:	7a 8f       	std	Y+26, r23	; 0x1a
     488:	8b 8f       	std	Y+27, r24	; 0x1b
     48a:	9c 8f       	std	Y+28, r25	; 0x1c
     48c:	89 8d       	ldd	r24, Y+25	; 0x19
     48e:	9a 8d       	ldd	r25, Y+26	; 0x1a

00000490 <.LM64>:
     490:	6c 96       	adiw	r28, 0x1c	; 28
     492:	0f b6       	in	r0, 0x3f	; 63
     494:	f8 94       	cli
     496:	de bf       	out	0x3e, r29	; 62
     498:	0f be       	out	0x3f, r0	; 63
     49a:	cd bf       	out	0x3d, r28	; 61
     49c:	df 91       	pop	r29
     49e:	cf 91       	pop	r28
     4a0:	08 95       	ret

000004a2 <main>:
     4a2:	cf 93       	push	r28
     4a4:	df 93       	push	r29
     4a6:	cd b7       	in	r28, 0x3d	; 61
     4a8:	de b7       	in	r29, 0x3e	; 62
     4aa:	a2 97       	sbiw	r28, 0x22	; 34
     4ac:	0f b6       	in	r0, 0x3f	; 63
     4ae:	f8 94       	cli
     4b0:	de bf       	out	0x3e, r29	; 62
     4b2:	0f be       	out	0x3f, r0	; 63
     4b4:	cd bf       	out	0x3d, r28	; 61

000004b6 <.LM1>:
     4b6:	0e 94 49 00 	call	0x92	; 0x92 <Ultrasonic_init>

000004ba <.LM2>:
     4ba:	0e 94 12 07 	call	0xe24	; 0xe24 <LCD_init>

000004be <.LM3>:
     4be:	80 e6       	ldi	r24, 0x60	; 96
     4c0:	90 e0       	ldi	r25, 0x00	; 0
     4c2:	0e 94 1f 10 	call	0x203e	; 0x203e <LCD_displayString>

000004c6 <.LM4>:
     4c6:	8f e5       	ldi	r24, 0x5F	; 95
     4c8:	90 e0       	ldi	r25, 0x00	; 0
     4ca:	dc 01       	movw	r26, r24
     4cc:	2c 91       	ld	r18, X
     4ce:	8f e5       	ldi	r24, 0x5F	; 95
     4d0:	90 e0       	ldi	r25, 0x00	; 0
     4d2:	20 68       	ori	r18, 0x80	; 128
     4d4:	fc 01       	movw	r30, r24
     4d6:	20 83       	st	Z, r18

000004d8 <.L10>:
     4d8:	6b e0       	ldi	r22, 0x0B	; 11
     4da:	81 e0       	ldi	r24, 0x01	; 1
     4dc:	0e 94 4c 10 	call	0x2098	; 0x2098 <LCD_moveCursor>

000004e0 <.LM6>:
     4e0:	0e 94 e8 01 	call	0x3d0	; 0x3d0 <Ultrasonic_readDistance>

000004e4 <.LM7>:
     4e4:	0e 94 9c 10 	call	0x2138	; 0x2138 <LCD_intgerToString>
     4e8:	80 e0       	ldi	r24, 0x00	; 0
     4ea:	90 e0       	ldi	r25, 0x00	; 0
     4ec:	aa ef       	ldi	r26, 0xFA	; 250
     4ee:	b3 e4       	ldi	r27, 0x43	; 67
     4f0:	89 83       	std	Y+1, r24	; 0x01
     4f2:	9a 83       	std	Y+2, r25	; 0x02
     4f4:	ab 83       	std	Y+3, r26	; 0x03
     4f6:	bc 83       	std	Y+4, r27	; 0x04

000004f8 <.LM8>:
     4f8:	20 e0       	ldi	r18, 0x00	; 0
     4fa:	30 e0       	ldi	r19, 0x00	; 0
     4fc:	4a ef       	ldi	r20, 0xFA	; 250
     4fe:	54 e4       	ldi	r21, 0x44	; 68
     500:	69 81       	ldd	r22, Y+1	; 0x01
     502:	7a 81       	ldd	r23, Y+2	; 0x02
     504:	8b 81       	ldd	r24, Y+3	; 0x03
     506:	9c 81       	ldd	r25, Y+4	; 0x04
     508:	0e 94 95 12 	call	0x252a	; 0x252a <__mulsf3>
     50c:	6b 8b       	std	Y+19, r22	; 0x13
     50e:	7c 8b       	std	Y+20, r23	; 0x14
     510:	8d 8b       	std	Y+21, r24	; 0x15
     512:	9e 8b       	std	Y+22, r25	; 0x16
     514:	8b 89       	ldd	r24, Y+19	; 0x13
     516:	9c 89       	ldd	r25, Y+20	; 0x14
     518:	ad 89       	ldd	r26, Y+21	; 0x15
     51a:	be 89       	ldd	r27, Y+22	; 0x16
     51c:	8d 83       	std	Y+5, r24	; 0x05
     51e:	9e 83       	std	Y+6, r25	; 0x06
     520:	af 83       	std	Y+7, r26	; 0x07
     522:	b8 87       	std	Y+8, r27	; 0x08

00000524 <.LM9>:
     524:	20 e0       	ldi	r18, 0x00	; 0
     526:	30 e0       	ldi	r19, 0x00	; 0
     528:	40 e8       	ldi	r20, 0x80	; 128
     52a:	5f e3       	ldi	r21, 0x3F	; 63
     52c:	6d 81       	ldd	r22, Y+5	; 0x05
     52e:	7e 81       	ldd	r23, Y+6	; 0x06
     530:	8f 81       	ldd	r24, Y+7	; 0x07
     532:	98 85       	ldd	r25, Y+8	; 0x08
     534:	0e 94 38 11 	call	0x2270	; 0x2270 <__cmpsf2>
     538:	88 23       	and	r24, r24
     53a:	2c f4       	brge	.+10     	; 0x546 <.L13>

0000053c <.LM10>:
     53c:	81 e0       	ldi	r24, 0x01	; 1
     53e:	90 e0       	ldi	r25, 0x00	; 0
     540:	9a 87       	std	Y+10, r25	; 0x0a
     542:	89 87       	std	Y+9, r24	; 0x09
     544:	54 c0       	rjmp	.+168    	; 0x5ee <.L4>

00000546 <.L13>:
     546:	20 e0       	ldi	r18, 0x00	; 0
     548:	3f ef       	ldi	r19, 0xFF	; 255
     54a:	4f e7       	ldi	r20, 0x7F	; 127
     54c:	57 e4       	ldi	r21, 0x47	; 71
     54e:	6d 81       	ldd	r22, Y+5	; 0x05
     550:	7e 81       	ldd	r23, Y+6	; 0x06
     552:	8f 81       	ldd	r24, Y+7	; 0x07
     554:	98 85       	ldd	r25, Y+8	; 0x08
     556:	0e 94 90 12 	call	0x2520	; 0x2520 <__gesf2>
     55a:	18 16       	cp	r1, r24
     55c:	d4 f5       	brge	.+116    	; 0x5d2 <.L14>

0000055e <.LM12>:
     55e:	20 e0       	ldi	r18, 0x00	; 0
     560:	30 e0       	ldi	r19, 0x00	; 0
     562:	40 e2       	ldi	r20, 0x20	; 32
     564:	51 e4       	ldi	r21, 0x41	; 65
     566:	69 81       	ldd	r22, Y+1	; 0x01
     568:	7a 81       	ldd	r23, Y+2	; 0x02
     56a:	8b 81       	ldd	r24, Y+3	; 0x03
     56c:	9c 81       	ldd	r25, Y+4	; 0x04
     56e:	0e 94 95 12 	call	0x252a	; 0x252a <__mulsf3>
     572:	6f 8b       	std	Y+23, r22	; 0x17
     574:	78 8f       	std	Y+24, r23	; 0x18
     576:	89 8f       	std	Y+25, r24	; 0x19
     578:	9a 8f       	std	Y+26, r25	; 0x1a
     57a:	8f 89       	ldd	r24, Y+23	; 0x17
     57c:	98 8d       	ldd	r25, Y+24	; 0x18
     57e:	a9 8d       	ldd	r26, Y+25	; 0x19
     580:	ba 8d       	ldd	r27, Y+26	; 0x1a
     582:	8f 87       	std	Y+15, r24	; 0x0f
     584:	98 8b       	std	Y+16, r25	; 0x10
     586:	a9 8b       	std	Y+17, r26	; 0x11
     588:	ba 8b       	std	Y+18, r27	; 0x12

0000058a <.LM13>:
     58a:	6f 85       	ldd	r22, Y+15	; 0x0f
     58c:	78 89       	ldd	r23, Y+16	; 0x10
     58e:	89 89       	ldd	r24, Y+17	; 0x11
     590:	9a 89       	ldd	r25, Y+18	; 0x12
     592:	0e 94 af 11 	call	0x235e	; 0x235e <__fixunssfsi>
     596:	6b 8f       	std	Y+27, r22	; 0x1b
     598:	7c 8f       	std	Y+28, r23	; 0x1c
     59a:	8d 8f       	std	Y+29, r24	; 0x1d
     59c:	9e 8f       	std	Y+30, r25	; 0x1e
     59e:	ab 8d       	ldd	r26, Y+27	; 0x1b
     5a0:	bc 8d       	ldd	r27, Y+28	; 0x1c
     5a2:	ba 87       	std	Y+10, r27	; 0x0a
     5a4:	a9 87       	std	Y+9, r26	; 0x09

000005a6 <.LM14>:
     5a6:	10 c0       	rjmp	.+32     	; 0x5c8 <.L7>

000005a8 <.L8>:
     5a8:	88 ec       	ldi	r24, 0xC8	; 200
     5aa:	90 e0       	ldi	r25, 0x00	; 0
     5ac:	9c 87       	std	Y+12, r25	; 0x0c
     5ae:	8b 87       	std	Y+11, r24	; 0x0b

000005b0 <.LM15>:
     5b0:	8b 85       	ldd	r24, Y+11	; 0x0b
     5b2:	9c 85       	ldd	r25, Y+12	; 0x0c

000005b4 <.L1^B1>:
     5b4:	01 97       	sbiw	r24, 0x01	; 1
     5b6:	f1 f7       	brne	.-4      	; 0x5b4 <.L1^B1>
     5b8:	9c 87       	std	Y+12, r25	; 0x0c
     5ba:	8b 87       	std	Y+11, r24	; 0x0b

000005bc <.LM16>:
	...

000005be <.LM17>:
     5be:	89 85       	ldd	r24, Y+9	; 0x09
     5c0:	9a 85       	ldd	r25, Y+10	; 0x0a
     5c2:	01 97       	sbiw	r24, 0x01	; 1
     5c4:	9a 87       	std	Y+10, r25	; 0x0a
     5c6:	89 87       	std	Y+9, r24	; 0x09

000005c8 <.L7>:
     5c8:	89 85       	ldd	r24, Y+9	; 0x09
     5ca:	9a 85       	ldd	r25, Y+10	; 0x0a
     5cc:	89 2b       	or	r24, r25
     5ce:	61 f7       	brne	.-40     	; 0x5a8 <.L8>

000005d0 <.LM19>:
     5d0:	19 c0       	rjmp	.+50     	; 0x604 <.L9>

000005d2 <.L14>:
     5d2:	6d 81       	ldd	r22, Y+5	; 0x05
     5d4:	7e 81       	ldd	r23, Y+6	; 0x06
     5d6:	8f 81       	ldd	r24, Y+7	; 0x07
     5d8:	98 85       	ldd	r25, Y+8	; 0x08
     5da:	0e 94 af 11 	call	0x235e	; 0x235e <__fixunssfsi>
     5de:	6f 8f       	std	Y+31, r22	; 0x1f
     5e0:	78 a3       	std	Y+32, r23	; 0x20
     5e2:	89 a3       	std	Y+33, r24	; 0x21
     5e4:	9a a3       	std	Y+34, r25	; 0x22
     5e6:	ef 8d       	ldd	r30, Y+31	; 0x1f
     5e8:	f8 a1       	ldd	r31, Y+32	; 0x20
     5ea:	fa 87       	std	Y+10, r31	; 0x0a
     5ec:	e9 87       	std	Y+9, r30	; 0x09

000005ee <.L4>:
     5ee:	89 85       	ldd	r24, Y+9	; 0x09
     5f0:	9a 85       	ldd	r25, Y+10	; 0x0a
     5f2:	9e 87       	std	Y+14, r25	; 0x0e
     5f4:	8d 87       	std	Y+13, r24	; 0x0d

000005f6 <.LM21>:
     5f6:	8d 85       	ldd	r24, Y+13	; 0x0d
     5f8:	9e 85       	ldd	r25, Y+14	; 0x0e

000005fa <.L1^B2>:
     5fa:	01 97       	sbiw	r24, 0x01	; 1
     5fc:	f1 f7       	brne	.-4      	; 0x5fa <.L1^B2>
     5fe:	9e 87       	std	Y+14, r25	; 0x0e
     600:	8d 87       	std	Y+13, r24	; 0x0d

00000602 <.LM22>:
	...

00000604 <.L9>:
     604:	69 cf       	rjmp	.-302    	; 0x4d8 <.L10>

00000606 <GPIO_setupPinDirection>:
     606:	cf 93       	push	r28
     608:	df 93       	push	r29
     60a:	00 d0       	rcall	.+0      	; 0x60c <L0^A>

0000060c <L0^A>:
     60c:	0f 92       	push	r0
     60e:	cd b7       	in	r28, 0x3d	; 61
     610:	de b7       	in	r29, 0x3e	; 62
     612:	89 83       	std	Y+1, r24	; 0x01
     614:	6a 83       	std	Y+2, r22	; 0x02
     616:	4b 83       	std	Y+3, r20	; 0x03

00000618 <.LM1>:
     618:	8a 81       	ldd	r24, Y+2	; 0x02
     61a:	88 30       	cpi	r24, 0x08	; 8
     61c:	08 f0       	brcs	.+2      	; 0x620 <.LM2>

0000061e <L0^A>:
     61e:	dc c0       	rjmp	.+440    	; 0x7d8 <.L15>

00000620 <.LM2>:
     620:	89 81       	ldd	r24, Y+1	; 0x01
     622:	84 30       	cpi	r24, 0x04	; 4
     624:	08 f0       	brcs	.+2      	; 0x628 <.LM3>

00000626 <L0^A>:
     626:	d9 c0       	rjmp	.+434    	; 0x7da <.L16>

00000628 <.LM3>:
     628:	89 81       	ldd	r24, Y+1	; 0x01
     62a:	88 2f       	mov	r24, r24
     62c:	90 e0       	ldi	r25, 0x00	; 0
     62e:	83 30       	cpi	r24, 0x03	; 3
     630:	91 05       	cpc	r25, r1
     632:	09 f4       	brne	.+2      	; 0x636 <L0^A+0x2>

00000634 <L0^A>:
     634:	a1 c0       	rjmp	.+322    	; 0x778 <.L3>
     636:	84 30       	cpi	r24, 0x04	; 4
     638:	91 05       	cpc	r25, r1
     63a:	0c f0       	brlt	.+2      	; 0x63e <L0^A+0x2>

0000063c <L0^A>:
     63c:	ce c0       	rjmp	.+412    	; 0x7da <.L16>
     63e:	82 30       	cpi	r24, 0x02	; 2
     640:	91 05       	cpc	r25, r1
     642:	09 f4       	brne	.+2      	; 0x646 <L0^A+0x2>

00000644 <L0^A>:
     644:	69 c0       	rjmp	.+210    	; 0x718 <.L4>
     646:	83 30       	cpi	r24, 0x03	; 3
     648:	91 05       	cpc	r25, r1
     64a:	0c f0       	brlt	.+2      	; 0x64e <L0^A+0x2>

0000064c <L0^A>:
     64c:	c6 c0       	rjmp	.+396    	; 0x7da <.L16>
     64e:	00 97       	sbiw	r24, 0x00	; 0
     650:	19 f0       	breq	.+6      	; 0x658 <.L5>
     652:	01 97       	sbiw	r24, 0x01	; 1
     654:	89 f1       	breq	.+98     	; 0x6b8 <.L6>

00000656 <.LM4>:
     656:	c1 c0       	rjmp	.+386    	; 0x7da <.L16>

00000658 <.L5>:
     658:	8b 81       	ldd	r24, Y+3	; 0x03
     65a:	81 30       	cpi	r24, 0x01	; 1
     65c:	b1 f4       	brne	.+44     	; 0x68a <.L7>

0000065e <.LM6>:
     65e:	8a e3       	ldi	r24, 0x3A	; 58
     660:	90 e0       	ldi	r25, 0x00	; 0
     662:	fc 01       	movw	r30, r24
     664:	80 81       	ld	r24, Z
     666:	48 2f       	mov	r20, r24
     668:	8a 81       	ldd	r24, Y+2	; 0x02
     66a:	28 2f       	mov	r18, r24
     66c:	30 e0       	ldi	r19, 0x00	; 0
     66e:	81 e0       	ldi	r24, 0x01	; 1
     670:	90 e0       	ldi	r25, 0x00	; 0
     672:	02 c0       	rjmp	.+4      	; 0x678 <.L2^B1>

00000674 <.L1^B1>:
     674:	88 0f       	add	r24, r24
     676:	99 1f       	adc	r25, r25

00000678 <.L2^B1>:
     678:	2a 95       	dec	r18
     67a:	e2 f7       	brpl	.-8      	; 0x674 <.L1^B1>
     67c:	24 2f       	mov	r18, r20
     67e:	28 2b       	or	r18, r24
     680:	8a e3       	ldi	r24, 0x3A	; 58
     682:	90 e0       	ldi	r25, 0x00	; 0
     684:	fc 01       	movw	r30, r24
     686:	20 83       	st	Z, r18

00000688 <.LM7>:
     688:	a8 c0       	rjmp	.+336    	; 0x7da <.L16>

0000068a <.L7>:
     68a:	8a e3       	ldi	r24, 0x3A	; 58
     68c:	90 e0       	ldi	r25, 0x00	; 0
     68e:	fc 01       	movw	r30, r24
     690:	80 81       	ld	r24, Z
     692:	48 2f       	mov	r20, r24
     694:	8a 81       	ldd	r24, Y+2	; 0x02
     696:	28 2f       	mov	r18, r24
     698:	30 e0       	ldi	r19, 0x00	; 0
     69a:	81 e0       	ldi	r24, 0x01	; 1
     69c:	90 e0       	ldi	r25, 0x00	; 0
     69e:	02 c0       	rjmp	.+4      	; 0x6a4 <.L2^B2>

000006a0 <.L1^B2>:
     6a0:	88 0f       	add	r24, r24
     6a2:	99 1f       	adc	r25, r25

000006a4 <.L2^B2>:
     6a4:	2a 95       	dec	r18
     6a6:	e2 f7       	brpl	.-8      	; 0x6a0 <.L1^B2>
     6a8:	80 95       	com	r24
     6aa:	24 2f       	mov	r18, r20
     6ac:	28 23       	and	r18, r24
     6ae:	8a e3       	ldi	r24, 0x3A	; 58
     6b0:	90 e0       	ldi	r25, 0x00	; 0
     6b2:	fc 01       	movw	r30, r24
     6b4:	20 83       	st	Z, r18

000006b6 <.LM9>:
     6b6:	91 c0       	rjmp	.+290    	; 0x7da <.L16>

000006b8 <.L6>:
     6b8:	8b 81       	ldd	r24, Y+3	; 0x03
     6ba:	81 30       	cpi	r24, 0x01	; 1
     6bc:	b1 f4       	brne	.+44     	; 0x6ea <.L9>

000006be <.LM11>:
     6be:	87 e3       	ldi	r24, 0x37	; 55
     6c0:	90 e0       	ldi	r25, 0x00	; 0
     6c2:	fc 01       	movw	r30, r24
     6c4:	80 81       	ld	r24, Z
     6c6:	48 2f       	mov	r20, r24
     6c8:	8a 81       	ldd	r24, Y+2	; 0x02
     6ca:	28 2f       	mov	r18, r24
     6cc:	30 e0       	ldi	r19, 0x00	; 0
     6ce:	81 e0       	ldi	r24, 0x01	; 1
     6d0:	90 e0       	ldi	r25, 0x00	; 0
     6d2:	02 c0       	rjmp	.+4      	; 0x6d8 <.L2^B3>

000006d4 <.L1^B3>:
     6d4:	88 0f       	add	r24, r24
     6d6:	99 1f       	adc	r25, r25

000006d8 <.L2^B3>:
     6d8:	2a 95       	dec	r18
     6da:	e2 f7       	brpl	.-8      	; 0x6d4 <.L1^B3>
     6dc:	24 2f       	mov	r18, r20
     6de:	28 2b       	or	r18, r24
     6e0:	87 e3       	ldi	r24, 0x37	; 55
     6e2:	90 e0       	ldi	r25, 0x00	; 0
     6e4:	fc 01       	movw	r30, r24
     6e6:	20 83       	st	Z, r18

000006e8 <.LM12>:
     6e8:	78 c0       	rjmp	.+240    	; 0x7da <.L16>

000006ea <.L9>:
     6ea:	87 e3       	ldi	r24, 0x37	; 55
     6ec:	90 e0       	ldi	r25, 0x00	; 0
     6ee:	fc 01       	movw	r30, r24
     6f0:	80 81       	ld	r24, Z
     6f2:	48 2f       	mov	r20, r24
     6f4:	8a 81       	ldd	r24, Y+2	; 0x02
     6f6:	28 2f       	mov	r18, r24
     6f8:	30 e0       	ldi	r19, 0x00	; 0
     6fa:	81 e0       	ldi	r24, 0x01	; 1
     6fc:	90 e0       	ldi	r25, 0x00	; 0
     6fe:	02 c0       	rjmp	.+4      	; 0x704 <.L2^B4>

00000700 <.L1^B4>:
     700:	88 0f       	add	r24, r24
     702:	99 1f       	adc	r25, r25

00000704 <.L2^B4>:
     704:	2a 95       	dec	r18
     706:	e2 f7       	brpl	.-8      	; 0x700 <.L1^B4>
     708:	80 95       	com	r24
     70a:	24 2f       	mov	r18, r20
     70c:	28 23       	and	r18, r24
     70e:	87 e3       	ldi	r24, 0x37	; 55
     710:	90 e0       	ldi	r25, 0x00	; 0
     712:	fc 01       	movw	r30, r24
     714:	20 83       	st	Z, r18

00000716 <.LM14>:
     716:	61 c0       	rjmp	.+194    	; 0x7da <.L16>

00000718 <.L4>:
     718:	8b 81       	ldd	r24, Y+3	; 0x03
     71a:	81 30       	cpi	r24, 0x01	; 1
     71c:	b1 f4       	brne	.+44     	; 0x74a <.L11>

0000071e <.LM16>:
     71e:	84 e3       	ldi	r24, 0x34	; 52
     720:	90 e0       	ldi	r25, 0x00	; 0
     722:	fc 01       	movw	r30, r24
     724:	80 81       	ld	r24, Z
     726:	48 2f       	mov	r20, r24
     728:	8a 81       	ldd	r24, Y+2	; 0x02
     72a:	28 2f       	mov	r18, r24
     72c:	30 e0       	ldi	r19, 0x00	; 0
     72e:	81 e0       	ldi	r24, 0x01	; 1
     730:	90 e0       	ldi	r25, 0x00	; 0
     732:	02 c0       	rjmp	.+4      	; 0x738 <.L2^B5>

00000734 <.L1^B5>:
     734:	88 0f       	add	r24, r24
     736:	99 1f       	adc	r25, r25

00000738 <.L2^B5>:
     738:	2a 95       	dec	r18
     73a:	e2 f7       	brpl	.-8      	; 0x734 <.L1^B5>
     73c:	24 2f       	mov	r18, r20
     73e:	28 2b       	or	r18, r24
     740:	84 e3       	ldi	r24, 0x34	; 52
     742:	90 e0       	ldi	r25, 0x00	; 0
     744:	fc 01       	movw	r30, r24
     746:	20 83       	st	Z, r18

00000748 <.LM17>:
     748:	48 c0       	rjmp	.+144    	; 0x7da <.L16>

0000074a <.L11>:
     74a:	84 e3       	ldi	r24, 0x34	; 52
     74c:	90 e0       	ldi	r25, 0x00	; 0
     74e:	fc 01       	movw	r30, r24
     750:	80 81       	ld	r24, Z
     752:	48 2f       	mov	r20, r24
     754:	8a 81       	ldd	r24, Y+2	; 0x02
     756:	28 2f       	mov	r18, r24
     758:	30 e0       	ldi	r19, 0x00	; 0
     75a:	81 e0       	ldi	r24, 0x01	; 1
     75c:	90 e0       	ldi	r25, 0x00	; 0
     75e:	02 c0       	rjmp	.+4      	; 0x764 <.L2^B6>

00000760 <.L1^B6>:
     760:	88 0f       	add	r24, r24
     762:	99 1f       	adc	r25, r25

00000764 <.L2^B6>:
     764:	2a 95       	dec	r18
     766:	e2 f7       	brpl	.-8      	; 0x760 <.L1^B6>
     768:	80 95       	com	r24
     76a:	24 2f       	mov	r18, r20
     76c:	28 23       	and	r18, r24
     76e:	84 e3       	ldi	r24, 0x34	; 52
     770:	90 e0       	ldi	r25, 0x00	; 0
     772:	fc 01       	movw	r30, r24
     774:	20 83       	st	Z, r18

00000776 <.LM19>:
     776:	31 c0       	rjmp	.+98     	; 0x7da <.L16>

00000778 <.L3>:
     778:	8b 81       	ldd	r24, Y+3	; 0x03
     77a:	81 30       	cpi	r24, 0x01	; 1
     77c:	b1 f4       	brne	.+44     	; 0x7aa <.L13>

0000077e <.LM21>:
     77e:	81 e3       	ldi	r24, 0x31	; 49
     780:	90 e0       	ldi	r25, 0x00	; 0
     782:	fc 01       	movw	r30, r24
     784:	80 81       	ld	r24, Z
     786:	48 2f       	mov	r20, r24
     788:	8a 81       	ldd	r24, Y+2	; 0x02
     78a:	28 2f       	mov	r18, r24
     78c:	30 e0       	ldi	r19, 0x00	; 0
     78e:	81 e0       	ldi	r24, 0x01	; 1
     790:	90 e0       	ldi	r25, 0x00	; 0
     792:	02 c0       	rjmp	.+4      	; 0x798 <.L2^B7>

00000794 <.L1^B7>:
     794:	88 0f       	add	r24, r24
     796:	99 1f       	adc	r25, r25

00000798 <.L2^B7>:
     798:	2a 95       	dec	r18
     79a:	e2 f7       	brpl	.-8      	; 0x794 <.L1^B7>
     79c:	24 2f       	mov	r18, r20
     79e:	28 2b       	or	r18, r24
     7a0:	81 e3       	ldi	r24, 0x31	; 49
     7a2:	90 e0       	ldi	r25, 0x00	; 0
     7a4:	fc 01       	movw	r30, r24
     7a6:	20 83       	st	Z, r18

000007a8 <.LM22>:
     7a8:	18 c0       	rjmp	.+48     	; 0x7da <.L16>

000007aa <.L13>:
     7aa:	81 e3       	ldi	r24, 0x31	; 49
     7ac:	90 e0       	ldi	r25, 0x00	; 0
     7ae:	fc 01       	movw	r30, r24
     7b0:	80 81       	ld	r24, Z
     7b2:	48 2f       	mov	r20, r24
     7b4:	8a 81       	ldd	r24, Y+2	; 0x02
     7b6:	28 2f       	mov	r18, r24
     7b8:	30 e0       	ldi	r19, 0x00	; 0
     7ba:	81 e0       	ldi	r24, 0x01	; 1
     7bc:	90 e0       	ldi	r25, 0x00	; 0
     7be:	02 c0       	rjmp	.+4      	; 0x7c4 <.L2^B8>

000007c0 <.L1^B8>:
     7c0:	88 0f       	add	r24, r24
     7c2:	99 1f       	adc	r25, r25

000007c4 <.L2^B8>:
     7c4:	2a 95       	dec	r18
     7c6:	e2 f7       	brpl	.-8      	; 0x7c0 <.L1^B8>
     7c8:	80 95       	com	r24
     7ca:	24 2f       	mov	r18, r20
     7cc:	28 23       	and	r18, r24
     7ce:	81 e3       	ldi	r24, 0x31	; 49
     7d0:	90 e0       	ldi	r25, 0x00	; 0
     7d2:	fc 01       	movw	r30, r24
     7d4:	20 83       	st	Z, r18

000007d6 <.LM24>:
     7d6:	01 c0       	rjmp	.+2      	; 0x7da <.L16>

000007d8 <.L15>:
	...

000007da <.L16>:
     7da:	00 00       	nop
     7dc:	0f 90       	pop	r0
     7de:	0f 90       	pop	r0
     7e0:	0f 90       	pop	r0
     7e2:	df 91       	pop	r29
     7e4:	cf 91       	pop	r28
     7e6:	08 95       	ret

000007e8 <GPIO_writePin>:
     7e8:	cf 93       	push	r28
     7ea:	df 93       	push	r29
     7ec:	00 d0       	rcall	.+0      	; 0x7ee <L0^A>

000007ee <L0^A>:
     7ee:	0f 92       	push	r0
     7f0:	cd b7       	in	r28, 0x3d	; 61
     7f2:	de b7       	in	r29, 0x3e	; 62
     7f4:	89 83       	std	Y+1, r24	; 0x01
     7f6:	6a 83       	std	Y+2, r22	; 0x02
     7f8:	4b 83       	std	Y+3, r20	; 0x03

000007fa <.LM28>:
     7fa:	8a 81       	ldd	r24, Y+2	; 0x02
     7fc:	88 30       	cpi	r24, 0x08	; 8
     7fe:	08 f0       	brcs	.+2      	; 0x802 <.LM29>

00000800 <L0^A>:
     800:	dc c0       	rjmp	.+440    	; 0x9ba <.L31>

00000802 <.LM29>:
     802:	89 81       	ldd	r24, Y+1	; 0x01
     804:	84 30       	cpi	r24, 0x04	; 4
     806:	08 f0       	brcs	.+2      	; 0x80a <.LM30>

00000808 <L0^A>:
     808:	d9 c0       	rjmp	.+434    	; 0x9bc <.L18>

0000080a <.LM30>:
     80a:	89 81       	ldd	r24, Y+1	; 0x01
     80c:	88 2f       	mov	r24, r24
     80e:	90 e0       	ldi	r25, 0x00	; 0
     810:	83 30       	cpi	r24, 0x03	; 3
     812:	91 05       	cpc	r25, r1
     814:	09 f4       	brne	.+2      	; 0x818 <L0^A+0x2>

00000816 <L0^A>:
     816:	a1 c0       	rjmp	.+322    	; 0x95a <.L19>
     818:	84 30       	cpi	r24, 0x04	; 4
     81a:	91 05       	cpc	r25, r1
     81c:	0c f0       	brlt	.+2      	; 0x820 <L0^A+0x2>

0000081e <L0^A>:
     81e:	ce c0       	rjmp	.+412    	; 0x9bc <.L18>
     820:	82 30       	cpi	r24, 0x02	; 2
     822:	91 05       	cpc	r25, r1
     824:	09 f4       	brne	.+2      	; 0x828 <L0^A+0x2>

00000826 <L0^A>:
     826:	69 c0       	rjmp	.+210    	; 0x8fa <.L20>
     828:	83 30       	cpi	r24, 0x03	; 3
     82a:	91 05       	cpc	r25, r1
     82c:	0c f0       	brlt	.+2      	; 0x830 <L0^A+0x2>

0000082e <L0^A>:
     82e:	c6 c0       	rjmp	.+396    	; 0x9bc <.L18>
     830:	00 97       	sbiw	r24, 0x00	; 0
     832:	19 f0       	breq	.+6      	; 0x83a <.L21>
     834:	01 97       	sbiw	r24, 0x01	; 1
     836:	89 f1       	breq	.+98     	; 0x89a <.L22>

00000838 <.LM31>:
     838:	c1 c0       	rjmp	.+386    	; 0x9bc <.L18>

0000083a <.L21>:
     83a:	8b 81       	ldd	r24, Y+3	; 0x03
     83c:	81 30       	cpi	r24, 0x01	; 1
     83e:	b1 f4       	brne	.+44     	; 0x86c <.L23>

00000840 <.LM33>:
     840:	8b e3       	ldi	r24, 0x3B	; 59
     842:	90 e0       	ldi	r25, 0x00	; 0
     844:	fc 01       	movw	r30, r24
     846:	80 81       	ld	r24, Z
     848:	48 2f       	mov	r20, r24
     84a:	8a 81       	ldd	r24, Y+2	; 0x02
     84c:	28 2f       	mov	r18, r24
     84e:	30 e0       	ldi	r19, 0x00	; 0
     850:	81 e0       	ldi	r24, 0x01	; 1
     852:	90 e0       	ldi	r25, 0x00	; 0
     854:	02 c0       	rjmp	.+4      	; 0x85a <.L2^B9>

00000856 <.L1^B9>:
     856:	88 0f       	add	r24, r24
     858:	99 1f       	adc	r25, r25

0000085a <.L2^B9>:
     85a:	2a 95       	dec	r18
     85c:	e2 f7       	brpl	.-8      	; 0x856 <.L1^B9>
     85e:	24 2f       	mov	r18, r20
     860:	28 2b       	or	r18, r24
     862:	8b e3       	ldi	r24, 0x3B	; 59
     864:	90 e0       	ldi	r25, 0x00	; 0
     866:	fc 01       	movw	r30, r24
     868:	20 83       	st	Z, r18

0000086a <.LM34>:
     86a:	a8 c0       	rjmp	.+336    	; 0x9bc <.L18>

0000086c <.L23>:
     86c:	8b e3       	ldi	r24, 0x3B	; 59
     86e:	90 e0       	ldi	r25, 0x00	; 0
     870:	fc 01       	movw	r30, r24
     872:	80 81       	ld	r24, Z
     874:	48 2f       	mov	r20, r24
     876:	8a 81       	ldd	r24, Y+2	; 0x02
     878:	28 2f       	mov	r18, r24
     87a:	30 e0       	ldi	r19, 0x00	; 0
     87c:	81 e0       	ldi	r24, 0x01	; 1
     87e:	90 e0       	ldi	r25, 0x00	; 0
     880:	02 c0       	rjmp	.+4      	; 0x886 <.L2^B10>

00000882 <.L1^B10>:
     882:	88 0f       	add	r24, r24
     884:	99 1f       	adc	r25, r25

00000886 <.L2^B10>:
     886:	2a 95       	dec	r18
     888:	e2 f7       	brpl	.-8      	; 0x882 <.L1^B10>
     88a:	80 95       	com	r24
     88c:	24 2f       	mov	r18, r20
     88e:	28 23       	and	r18, r24
     890:	8b e3       	ldi	r24, 0x3B	; 59
     892:	90 e0       	ldi	r25, 0x00	; 0
     894:	fc 01       	movw	r30, r24
     896:	20 83       	st	Z, r18

00000898 <.LM36>:
     898:	91 c0       	rjmp	.+290    	; 0x9bc <.L18>

0000089a <.L22>:
     89a:	8b 81       	ldd	r24, Y+3	; 0x03
     89c:	81 30       	cpi	r24, 0x01	; 1
     89e:	b1 f4       	brne	.+44     	; 0x8cc <.L25>

000008a0 <.LM38>:
     8a0:	88 e3       	ldi	r24, 0x38	; 56
     8a2:	90 e0       	ldi	r25, 0x00	; 0
     8a4:	fc 01       	movw	r30, r24
     8a6:	80 81       	ld	r24, Z
     8a8:	48 2f       	mov	r20, r24
     8aa:	8a 81       	ldd	r24, Y+2	; 0x02
     8ac:	28 2f       	mov	r18, r24
     8ae:	30 e0       	ldi	r19, 0x00	; 0
     8b0:	81 e0       	ldi	r24, 0x01	; 1
     8b2:	90 e0       	ldi	r25, 0x00	; 0
     8b4:	02 c0       	rjmp	.+4      	; 0x8ba <.L2^B11>

000008b6 <.L1^B11>:
     8b6:	88 0f       	add	r24, r24
     8b8:	99 1f       	adc	r25, r25

000008ba <.L2^B11>:
     8ba:	2a 95       	dec	r18
     8bc:	e2 f7       	brpl	.-8      	; 0x8b6 <.L1^B11>
     8be:	24 2f       	mov	r18, r20
     8c0:	28 2b       	or	r18, r24
     8c2:	88 e3       	ldi	r24, 0x38	; 56
     8c4:	90 e0       	ldi	r25, 0x00	; 0
     8c6:	fc 01       	movw	r30, r24
     8c8:	20 83       	st	Z, r18

000008ca <.LM39>:
     8ca:	78 c0       	rjmp	.+240    	; 0x9bc <.L18>

000008cc <.L25>:
     8cc:	88 e3       	ldi	r24, 0x38	; 56
     8ce:	90 e0       	ldi	r25, 0x00	; 0
     8d0:	fc 01       	movw	r30, r24
     8d2:	80 81       	ld	r24, Z
     8d4:	48 2f       	mov	r20, r24
     8d6:	8a 81       	ldd	r24, Y+2	; 0x02
     8d8:	28 2f       	mov	r18, r24
     8da:	30 e0       	ldi	r19, 0x00	; 0
     8dc:	81 e0       	ldi	r24, 0x01	; 1
     8de:	90 e0       	ldi	r25, 0x00	; 0
     8e0:	02 c0       	rjmp	.+4      	; 0x8e6 <.L2^B12>

000008e2 <.L1^B12>:
     8e2:	88 0f       	add	r24, r24
     8e4:	99 1f       	adc	r25, r25

000008e6 <.L2^B12>:
     8e6:	2a 95       	dec	r18
     8e8:	e2 f7       	brpl	.-8      	; 0x8e2 <.L1^B12>
     8ea:	80 95       	com	r24
     8ec:	24 2f       	mov	r18, r20
     8ee:	28 23       	and	r18, r24
     8f0:	88 e3       	ldi	r24, 0x38	; 56
     8f2:	90 e0       	ldi	r25, 0x00	; 0
     8f4:	fc 01       	movw	r30, r24
     8f6:	20 83       	st	Z, r18

000008f8 <.LM41>:
     8f8:	61 c0       	rjmp	.+194    	; 0x9bc <.L18>

000008fa <.L20>:
     8fa:	8b 81       	ldd	r24, Y+3	; 0x03
     8fc:	81 30       	cpi	r24, 0x01	; 1
     8fe:	b1 f4       	brne	.+44     	; 0x92c <.L27>

00000900 <.LM43>:
     900:	85 e3       	ldi	r24, 0x35	; 53
     902:	90 e0       	ldi	r25, 0x00	; 0
     904:	fc 01       	movw	r30, r24
     906:	80 81       	ld	r24, Z
     908:	48 2f       	mov	r20, r24
     90a:	8a 81       	ldd	r24, Y+2	; 0x02
     90c:	28 2f       	mov	r18, r24
     90e:	30 e0       	ldi	r19, 0x00	; 0
     910:	81 e0       	ldi	r24, 0x01	; 1
     912:	90 e0       	ldi	r25, 0x00	; 0
     914:	02 c0       	rjmp	.+4      	; 0x91a <.L2^B13>

00000916 <.L1^B13>:
     916:	88 0f       	add	r24, r24
     918:	99 1f       	adc	r25, r25

0000091a <.L2^B13>:
     91a:	2a 95       	dec	r18
     91c:	e2 f7       	brpl	.-8      	; 0x916 <.L1^B13>
     91e:	24 2f       	mov	r18, r20
     920:	28 2b       	or	r18, r24
     922:	85 e3       	ldi	r24, 0x35	; 53
     924:	90 e0       	ldi	r25, 0x00	; 0
     926:	fc 01       	movw	r30, r24
     928:	20 83       	st	Z, r18

0000092a <.LM44>:
     92a:	48 c0       	rjmp	.+144    	; 0x9bc <.L18>

0000092c <.L27>:
     92c:	85 e3       	ldi	r24, 0x35	; 53
     92e:	90 e0       	ldi	r25, 0x00	; 0
     930:	fc 01       	movw	r30, r24
     932:	80 81       	ld	r24, Z
     934:	48 2f       	mov	r20, r24
     936:	8a 81       	ldd	r24, Y+2	; 0x02
     938:	28 2f       	mov	r18, r24
     93a:	30 e0       	ldi	r19, 0x00	; 0
     93c:	81 e0       	ldi	r24, 0x01	; 1
     93e:	90 e0       	ldi	r25, 0x00	; 0
     940:	02 c0       	rjmp	.+4      	; 0x946 <.L2^B14>

00000942 <.L1^B14>:
     942:	88 0f       	add	r24, r24
     944:	99 1f       	adc	r25, r25

00000946 <.L2^B14>:
     946:	2a 95       	dec	r18
     948:	e2 f7       	brpl	.-8      	; 0x942 <.L1^B14>
     94a:	80 95       	com	r24
     94c:	24 2f       	mov	r18, r20
     94e:	28 23       	and	r18, r24
     950:	85 e3       	ldi	r24, 0x35	; 53
     952:	90 e0       	ldi	r25, 0x00	; 0
     954:	fc 01       	movw	r30, r24
     956:	20 83       	st	Z, r18

00000958 <.LM46>:
     958:	31 c0       	rjmp	.+98     	; 0x9bc <.L18>

0000095a <.L19>:
     95a:	8b 81       	ldd	r24, Y+3	; 0x03
     95c:	81 30       	cpi	r24, 0x01	; 1
     95e:	b1 f4       	brne	.+44     	; 0x98c <.L29>

00000960 <.LM48>:
     960:	82 e3       	ldi	r24, 0x32	; 50
     962:	90 e0       	ldi	r25, 0x00	; 0
     964:	fc 01       	movw	r30, r24
     966:	80 81       	ld	r24, Z
     968:	48 2f       	mov	r20, r24
     96a:	8a 81       	ldd	r24, Y+2	; 0x02
     96c:	28 2f       	mov	r18, r24
     96e:	30 e0       	ldi	r19, 0x00	; 0
     970:	81 e0       	ldi	r24, 0x01	; 1
     972:	90 e0       	ldi	r25, 0x00	; 0
     974:	02 c0       	rjmp	.+4      	; 0x97a <.L2^B15>

00000976 <.L1^B15>:
     976:	88 0f       	add	r24, r24
     978:	99 1f       	adc	r25, r25

0000097a <.L2^B15>:
     97a:	2a 95       	dec	r18
     97c:	e2 f7       	brpl	.-8      	; 0x976 <.L1^B15>
     97e:	24 2f       	mov	r18, r20
     980:	28 2b       	or	r18, r24
     982:	82 e3       	ldi	r24, 0x32	; 50
     984:	90 e0       	ldi	r25, 0x00	; 0
     986:	fc 01       	movw	r30, r24
     988:	20 83       	st	Z, r18

0000098a <.LM49>:
     98a:	18 c0       	rjmp	.+48     	; 0x9bc <.L18>

0000098c <.L29>:
     98c:	82 e3       	ldi	r24, 0x32	; 50
     98e:	90 e0       	ldi	r25, 0x00	; 0
     990:	fc 01       	movw	r30, r24
     992:	80 81       	ld	r24, Z
     994:	48 2f       	mov	r20, r24
     996:	8a 81       	ldd	r24, Y+2	; 0x02
     998:	28 2f       	mov	r18, r24
     99a:	30 e0       	ldi	r19, 0x00	; 0
     99c:	81 e0       	ldi	r24, 0x01	; 1
     99e:	90 e0       	ldi	r25, 0x00	; 0
     9a0:	02 c0       	rjmp	.+4      	; 0x9a6 <.L2^B16>

000009a2 <.L1^B16>:
     9a2:	88 0f       	add	r24, r24
     9a4:	99 1f       	adc	r25, r25

000009a6 <.L2^B16>:
     9a6:	2a 95       	dec	r18
     9a8:	e2 f7       	brpl	.-8      	; 0x9a2 <.L1^B16>
     9aa:	80 95       	com	r24
     9ac:	24 2f       	mov	r18, r20
     9ae:	28 23       	and	r18, r24
     9b0:	82 e3       	ldi	r24, 0x32	; 50
     9b2:	90 e0       	ldi	r25, 0x00	; 0
     9b4:	fc 01       	movw	r30, r24
     9b6:	20 83       	st	Z, r18

000009b8 <.LM51>:
     9b8:	01 c0       	rjmp	.+2      	; 0x9bc <.L18>

000009ba <.L31>:
	...

000009bc <.L18>:
     9bc:	00 00       	nop
     9be:	0f 90       	pop	r0
     9c0:	0f 90       	pop	r0
     9c2:	0f 90       	pop	r0
     9c4:	df 91       	pop	r29
     9c6:	cf 91       	pop	r28
     9c8:	08 95       	ret

000009ca <GPIO_readPin>:
     9ca:	cf 93       	push	r28
     9cc:	df 93       	push	r29
     9ce:	00 d0       	rcall	.+0      	; 0x9d0 <L0^A>

000009d0 <L0^A>:
     9d0:	0f 92       	push	r0
     9d2:	cd b7       	in	r28, 0x3d	; 61
     9d4:	de b7       	in	r29, 0x3e	; 62
     9d6:	8a 83       	std	Y+2, r24	; 0x02
     9d8:	6b 83       	std	Y+3, r22	; 0x03

000009da <.LM55>:
     9da:	19 82       	std	Y+1, r1	; 0x01

000009dc <.LM56>:
     9dc:	8b 81       	ldd	r24, Y+3	; 0x03
     9de:	88 30       	cpi	r24, 0x08	; 8
     9e0:	08 f0       	brcs	.+2      	; 0x9e4 <.LM57>

000009e2 <L0^A>:
     9e2:	77 c0       	rjmp	.+238    	; 0xad2 <.L48>

000009e4 <.LM57>:
     9e4:	8a 81       	ldd	r24, Y+2	; 0x02
     9e6:	84 30       	cpi	r24, 0x04	; 4
     9e8:	08 f0       	brcs	.+2      	; 0x9ec <.LM58>

000009ea <L0^A>:
     9ea:	74 c0       	rjmp	.+232    	; 0xad4 <.L34>

000009ec <.LM58>:
     9ec:	8a 81       	ldd	r24, Y+2	; 0x02
     9ee:	88 2f       	mov	r24, r24
     9f0:	90 e0       	ldi	r25, 0x00	; 0
     9f2:	83 30       	cpi	r24, 0x03	; 3
     9f4:	91 05       	cpc	r25, r1
     9f6:	09 f4       	brne	.+2      	; 0x9fa <L0^A+0x2>

000009f8 <L0^A>:
     9f8:	55 c0       	rjmp	.+170    	; 0xaa4 <.L35>
     9fa:	84 30       	cpi	r24, 0x04	; 4
     9fc:	91 05       	cpc	r25, r1
     9fe:	0c f0       	brlt	.+2      	; 0xa02 <L0^A+0x2>

00000a00 <L0^A>:
     a00:	69 c0       	rjmp	.+210    	; 0xad4 <.L34>
     a02:	82 30       	cpi	r24, 0x02	; 2
     a04:	91 05       	cpc	r25, r1
     a06:	b9 f1       	breq	.+110    	; 0xa76 <.L36>
     a08:	83 30       	cpi	r24, 0x03	; 3
     a0a:	91 05       	cpc	r25, r1
     a0c:	0c f0       	brlt	.+2      	; 0xa10 <L0^A+0x2>

00000a0e <L0^A>:
     a0e:	62 c0       	rjmp	.+196    	; 0xad4 <.L34>
     a10:	00 97       	sbiw	r24, 0x00	; 0
     a12:	19 f0       	breq	.+6      	; 0xa1a <.L37>
     a14:	01 97       	sbiw	r24, 0x01	; 1
     a16:	c1 f0       	breq	.+48     	; 0xa48 <.L38>
     a18:	5d c0       	rjmp	.+186    	; 0xad4 <.L34>

00000a1a <.L37>:
     a1a:	89 e3       	ldi	r24, 0x39	; 57
     a1c:	90 e0       	ldi	r25, 0x00	; 0
     a1e:	fc 01       	movw	r30, r24
     a20:	80 81       	ld	r24, Z
     a22:	88 2f       	mov	r24, r24
     a24:	90 e0       	ldi	r25, 0x00	; 0
     a26:	2b 81       	ldd	r18, Y+3	; 0x03
     a28:	22 2f       	mov	r18, r18
     a2a:	30 e0       	ldi	r19, 0x00	; 0
     a2c:	02 c0       	rjmp	.+4      	; 0xa32 <.L2^B17>

00000a2e <.L1^B17>:
     a2e:	95 95       	asr	r25
     a30:	87 95       	ror	r24

00000a32 <.L2^B17>:
     a32:	2a 95       	dec	r18
     a34:	e2 f7       	brpl	.-8      	; 0xa2e <.L1^B17>
     a36:	81 70       	andi	r24, 0x01	; 1
     a38:	99 27       	eor	r25, r25

00000a3a <.LM60>:
     a3a:	89 2b       	or	r24, r25
     a3c:	19 f0       	breq	.+6      	; 0xa44 <.L39>

00000a3e <.LM61>:
     a3e:	81 e0       	ldi	r24, 0x01	; 1
     a40:	89 83       	std	Y+1, r24	; 0x01

00000a42 <.LM62>:
     a42:	48 c0       	rjmp	.+144    	; 0xad4 <.L34>

00000a44 <.L39>:
     a44:	19 82       	std	Y+1, r1	; 0x01

00000a46 <.LM64>:
     a46:	46 c0       	rjmp	.+140    	; 0xad4 <.L34>

00000a48 <.L38>:
     a48:	86 e3       	ldi	r24, 0x36	; 54
     a4a:	90 e0       	ldi	r25, 0x00	; 0
     a4c:	fc 01       	movw	r30, r24
     a4e:	80 81       	ld	r24, Z
     a50:	88 2f       	mov	r24, r24
     a52:	90 e0       	ldi	r25, 0x00	; 0
     a54:	2b 81       	ldd	r18, Y+3	; 0x03
     a56:	22 2f       	mov	r18, r18
     a58:	30 e0       	ldi	r19, 0x00	; 0
     a5a:	02 c0       	rjmp	.+4      	; 0xa60 <.L2^B18>

00000a5c <.L1^B18>:
     a5c:	95 95       	asr	r25
     a5e:	87 95       	ror	r24

00000a60 <.L2^B18>:
     a60:	2a 95       	dec	r18
     a62:	e2 f7       	brpl	.-8      	; 0xa5c <.L1^B18>
     a64:	81 70       	andi	r24, 0x01	; 1
     a66:	99 27       	eor	r25, r25

00000a68 <.LM66>:
     a68:	89 2b       	or	r24, r25
     a6a:	19 f0       	breq	.+6      	; 0xa72 <.L41>

00000a6c <.LM67>:
     a6c:	81 e0       	ldi	r24, 0x01	; 1
     a6e:	89 83       	std	Y+1, r24	; 0x01

00000a70 <.LM68>:
     a70:	31 c0       	rjmp	.+98     	; 0xad4 <.L34>

00000a72 <.L41>:
     a72:	19 82       	std	Y+1, r1	; 0x01

00000a74 <.LM70>:
     a74:	2f c0       	rjmp	.+94     	; 0xad4 <.L34>

00000a76 <.L36>:
     a76:	83 e3       	ldi	r24, 0x33	; 51
     a78:	90 e0       	ldi	r25, 0x00	; 0
     a7a:	fc 01       	movw	r30, r24
     a7c:	80 81       	ld	r24, Z
     a7e:	88 2f       	mov	r24, r24
     a80:	90 e0       	ldi	r25, 0x00	; 0
     a82:	2b 81       	ldd	r18, Y+3	; 0x03
     a84:	22 2f       	mov	r18, r18
     a86:	30 e0       	ldi	r19, 0x00	; 0
     a88:	02 c0       	rjmp	.+4      	; 0xa8e <.L2^B19>

00000a8a <.L1^B19>:
     a8a:	95 95       	asr	r25
     a8c:	87 95       	ror	r24

00000a8e <.L2^B19>:
     a8e:	2a 95       	dec	r18
     a90:	e2 f7       	brpl	.-8      	; 0xa8a <.L1^B19>
     a92:	81 70       	andi	r24, 0x01	; 1
     a94:	99 27       	eor	r25, r25

00000a96 <.LM72>:
     a96:	89 2b       	or	r24, r25
     a98:	19 f0       	breq	.+6      	; 0xaa0 <.L43>

00000a9a <.LM73>:
     a9a:	81 e0       	ldi	r24, 0x01	; 1
     a9c:	89 83       	std	Y+1, r24	; 0x01

00000a9e <.LM74>:
     a9e:	1a c0       	rjmp	.+52     	; 0xad4 <.L34>

00000aa0 <.L43>:
     aa0:	19 82       	std	Y+1, r1	; 0x01

00000aa2 <.LM76>:
     aa2:	18 c0       	rjmp	.+48     	; 0xad4 <.L34>

00000aa4 <.L35>:
     aa4:	80 e3       	ldi	r24, 0x30	; 48
     aa6:	90 e0       	ldi	r25, 0x00	; 0
     aa8:	fc 01       	movw	r30, r24
     aaa:	80 81       	ld	r24, Z
     aac:	88 2f       	mov	r24, r24
     aae:	90 e0       	ldi	r25, 0x00	; 0
     ab0:	2b 81       	ldd	r18, Y+3	; 0x03
     ab2:	22 2f       	mov	r18, r18
     ab4:	30 e0       	ldi	r19, 0x00	; 0
     ab6:	02 c0       	rjmp	.+4      	; 0xabc <.L2^B20>

00000ab8 <.L1^B20>:
     ab8:	95 95       	asr	r25
     aba:	87 95       	ror	r24

00000abc <.L2^B20>:
     abc:	2a 95       	dec	r18
     abe:	e2 f7       	brpl	.-8      	; 0xab8 <.L1^B20>
     ac0:	81 70       	andi	r24, 0x01	; 1
     ac2:	99 27       	eor	r25, r25

00000ac4 <.LM78>:
     ac4:	89 2b       	or	r24, r25
     ac6:	19 f0       	breq	.+6      	; 0xace <.L45>

00000ac8 <.LM79>:
     ac8:	81 e0       	ldi	r24, 0x01	; 1
     aca:	89 83       	std	Y+1, r24	; 0x01

00000acc <.LM80>:
     acc:	03 c0       	rjmp	.+6      	; 0xad4 <.L34>

00000ace <.L45>:
     ace:	19 82       	std	Y+1, r1	; 0x01

00000ad0 <.LM82>:
     ad0:	01 c0       	rjmp	.+2      	; 0xad4 <.L34>

00000ad2 <.L48>:
	...

00000ad4 <.L34>:
     ad4:	89 81       	ldd	r24, Y+1	; 0x01

00000ad6 <.LM85>:
     ad6:	0f 90       	pop	r0
     ad8:	0f 90       	pop	r0
     ada:	0f 90       	pop	r0
     adc:	df 91       	pop	r29
     ade:	cf 91       	pop	r28
     ae0:	08 95       	ret

00000ae2 <GPIO_setupPortDirection>:
     ae2:	cf 93       	push	r28
     ae4:	df 93       	push	r29
     ae6:	00 d0       	rcall	.+0      	; 0xae8 <L0^A>

00000ae8 <L0^A>:
     ae8:	cd b7       	in	r28, 0x3d	; 61
     aea:	de b7       	in	r29, 0x3e	; 62
     aec:	89 83       	std	Y+1, r24	; 0x01
     aee:	6a 83       	std	Y+2, r22	; 0x02

00000af0 <.LM87>:
     af0:	89 81       	ldd	r24, Y+1	; 0x01
     af2:	84 30       	cpi	r24, 0x04	; 4
     af4:	60 f5       	brcc	.+88     	; 0xb4e <.L50>

00000af6 <.LM88>:
     af6:	89 81       	ldd	r24, Y+1	; 0x01
     af8:	88 2f       	mov	r24, r24
     afa:	90 e0       	ldi	r25, 0x00	; 0
     afc:	83 30       	cpi	r24, 0x03	; 3
     afe:	91 05       	cpc	r25, r1
     b00:	01 f1       	breq	.+64     	; 0xb42 <.L51>
     b02:	84 30       	cpi	r24, 0x04	; 4
     b04:	91 05       	cpc	r25, r1
     b06:	1c f5       	brge	.+70     	; 0xb4e <.L50>
     b08:	82 30       	cpi	r24, 0x02	; 2
     b0a:	91 05       	cpc	r25, r1
     b0c:	a1 f0       	breq	.+40     	; 0xb36 <.L52>
     b0e:	83 30       	cpi	r24, 0x03	; 3
     b10:	91 05       	cpc	r25, r1
     b12:	ec f4       	brge	.+58     	; 0xb4e <.L50>
     b14:	00 97       	sbiw	r24, 0x00	; 0
     b16:	19 f0       	breq	.+6      	; 0xb1e <.L53>
     b18:	01 97       	sbiw	r24, 0x01	; 1
     b1a:	39 f0       	breq	.+14     	; 0xb2a <.L54>

00000b1c <.LM89>:
     b1c:	18 c0       	rjmp	.+48     	; 0xb4e <.L50>

00000b1e <.L53>:
     b1e:	8a e3       	ldi	r24, 0x3A	; 58
     b20:	90 e0       	ldi	r25, 0x00	; 0

00000b22 <.LM91>:
     b22:	2a 81       	ldd	r18, Y+2	; 0x02
     b24:	fc 01       	movw	r30, r24
     b26:	20 83       	st	Z, r18

00000b28 <.LM92>:
     b28:	12 c0       	rjmp	.+36     	; 0xb4e <.L50>

00000b2a <.L54>:
     b2a:	87 e3       	ldi	r24, 0x37	; 55
     b2c:	90 e0       	ldi	r25, 0x00	; 0

00000b2e <.LM94>:
     b2e:	2a 81       	ldd	r18, Y+2	; 0x02
     b30:	fc 01       	movw	r30, r24
     b32:	20 83       	st	Z, r18

00000b34 <.LM95>:
     b34:	0c c0       	rjmp	.+24     	; 0xb4e <.L50>

00000b36 <.L52>:
     b36:	84 e3       	ldi	r24, 0x34	; 52
     b38:	90 e0       	ldi	r25, 0x00	; 0

00000b3a <.LM97>:
     b3a:	2a 81       	ldd	r18, Y+2	; 0x02
     b3c:	fc 01       	movw	r30, r24
     b3e:	20 83       	st	Z, r18

00000b40 <.LM98>:
     b40:	06 c0       	rjmp	.+12     	; 0xb4e <.L50>

00000b42 <.L51>:
     b42:	81 e3       	ldi	r24, 0x31	; 49
     b44:	90 e0       	ldi	r25, 0x00	; 0

00000b46 <.LM100>:
     b46:	2a 81       	ldd	r18, Y+2	; 0x02
     b48:	fc 01       	movw	r30, r24
     b4a:	20 83       	st	Z, r18

00000b4c <.LM101>:
	...

00000b4e <.L50>:
     b4e:	00 00       	nop
     b50:	0f 90       	pop	r0
     b52:	0f 90       	pop	r0
     b54:	df 91       	pop	r29
     b56:	cf 91       	pop	r28
     b58:	08 95       	ret

00000b5a <GPIO_writePort>:
     b5a:	cf 93       	push	r28
     b5c:	df 93       	push	r29
     b5e:	00 d0       	rcall	.+0      	; 0xb60 <L0^A>

00000b60 <L0^A>:
     b60:	cd b7       	in	r28, 0x3d	; 61
     b62:	de b7       	in	r29, 0x3e	; 62
     b64:	89 83       	std	Y+1, r24	; 0x01
     b66:	6a 83       	std	Y+2, r22	; 0x02

00000b68 <.LM104>:
     b68:	89 81       	ldd	r24, Y+1	; 0x01
     b6a:	84 30       	cpi	r24, 0x04	; 4
     b6c:	60 f5       	brcc	.+88     	; 0xbc6 <.L57>

00000b6e <.LM105>:
     b6e:	89 81       	ldd	r24, Y+1	; 0x01
     b70:	88 2f       	mov	r24, r24
     b72:	90 e0       	ldi	r25, 0x00	; 0
     b74:	83 30       	cpi	r24, 0x03	; 3
     b76:	91 05       	cpc	r25, r1
     b78:	01 f1       	breq	.+64     	; 0xbba <.L58>
     b7a:	84 30       	cpi	r24, 0x04	; 4
     b7c:	91 05       	cpc	r25, r1
     b7e:	1c f5       	brge	.+70     	; 0xbc6 <.L57>
     b80:	82 30       	cpi	r24, 0x02	; 2
     b82:	91 05       	cpc	r25, r1
     b84:	a1 f0       	breq	.+40     	; 0xbae <.L59>
     b86:	83 30       	cpi	r24, 0x03	; 3
     b88:	91 05       	cpc	r25, r1
     b8a:	ec f4       	brge	.+58     	; 0xbc6 <.L57>
     b8c:	00 97       	sbiw	r24, 0x00	; 0
     b8e:	19 f0       	breq	.+6      	; 0xb96 <.L60>
     b90:	01 97       	sbiw	r24, 0x01	; 1
     b92:	39 f0       	breq	.+14     	; 0xba2 <.L61>

00000b94 <.LM106>:
     b94:	18 c0       	rjmp	.+48     	; 0xbc6 <.L57>

00000b96 <.L60>:
     b96:	8b e3       	ldi	r24, 0x3B	; 59
     b98:	90 e0       	ldi	r25, 0x00	; 0

00000b9a <.LM108>:
     b9a:	2a 81       	ldd	r18, Y+2	; 0x02
     b9c:	fc 01       	movw	r30, r24
     b9e:	20 83       	st	Z, r18

00000ba0 <.LM109>:
     ba0:	12 c0       	rjmp	.+36     	; 0xbc6 <.L57>

00000ba2 <.L61>:
     ba2:	88 e3       	ldi	r24, 0x38	; 56
     ba4:	90 e0       	ldi	r25, 0x00	; 0

00000ba6 <.LM111>:
     ba6:	2a 81       	ldd	r18, Y+2	; 0x02
     ba8:	fc 01       	movw	r30, r24
     baa:	20 83       	st	Z, r18

00000bac <.LM112>:
     bac:	0c c0       	rjmp	.+24     	; 0xbc6 <.L57>

00000bae <.L59>:
     bae:	85 e3       	ldi	r24, 0x35	; 53
     bb0:	90 e0       	ldi	r25, 0x00	; 0

00000bb2 <.LM114>:
     bb2:	2a 81       	ldd	r18, Y+2	; 0x02
     bb4:	fc 01       	movw	r30, r24
     bb6:	20 83       	st	Z, r18

00000bb8 <.LM115>:
     bb8:	06 c0       	rjmp	.+12     	; 0xbc6 <.L57>

00000bba <.L58>:
     bba:	82 e3       	ldi	r24, 0x32	; 50
     bbc:	90 e0       	ldi	r25, 0x00	; 0

00000bbe <.LM117>:
     bbe:	2a 81       	ldd	r18, Y+2	; 0x02
     bc0:	fc 01       	movw	r30, r24
     bc2:	20 83       	st	Z, r18

00000bc4 <.LM118>:
	...

00000bc6 <.L57>:
     bc6:	00 00       	nop
     bc8:	0f 90       	pop	r0
     bca:	0f 90       	pop	r0
     bcc:	df 91       	pop	r29
     bce:	cf 91       	pop	r28
     bd0:	08 95       	ret

00000bd2 <GPIO_readPort>:
     bd2:	cf 93       	push	r28
     bd4:	df 93       	push	r29
     bd6:	00 d0       	rcall	.+0      	; 0xbd8 <L0^A>

00000bd8 <L0^A>:
     bd8:	cd b7       	in	r28, 0x3d	; 61
     bda:	de b7       	in	r29, 0x3e	; 62
     bdc:	8a 83       	std	Y+2, r24	; 0x02

00000bde <.LM121>:
     bde:	19 82       	std	Y+1, r1	; 0x01

00000be0 <.LM122>:
     be0:	8a 81       	ldd	r24, Y+2	; 0x02
     be2:	84 30       	cpi	r24, 0x04	; 4
     be4:	60 f5       	brcc	.+88     	; 0xc3e <.L64>

00000be6 <.LM123>:
     be6:	8a 81       	ldd	r24, Y+2	; 0x02
     be8:	88 2f       	mov	r24, r24
     bea:	90 e0       	ldi	r25, 0x00	; 0
     bec:	83 30       	cpi	r24, 0x03	; 3
     bee:	91 05       	cpc	r25, r1
     bf0:	01 f1       	breq	.+64     	; 0xc32 <.L65>
     bf2:	84 30       	cpi	r24, 0x04	; 4
     bf4:	91 05       	cpc	r25, r1
     bf6:	1c f5       	brge	.+70     	; 0xc3e <.L64>
     bf8:	82 30       	cpi	r24, 0x02	; 2
     bfa:	91 05       	cpc	r25, r1
     bfc:	a1 f0       	breq	.+40     	; 0xc26 <.L66>
     bfe:	83 30       	cpi	r24, 0x03	; 3
     c00:	91 05       	cpc	r25, r1
     c02:	ec f4       	brge	.+58     	; 0xc3e <.L64>
     c04:	00 97       	sbiw	r24, 0x00	; 0
     c06:	19 f0       	breq	.+6      	; 0xc0e <.L67>
     c08:	01 97       	sbiw	r24, 0x01	; 1
     c0a:	39 f0       	breq	.+14     	; 0xc1a <.L68>
     c0c:	18 c0       	rjmp	.+48     	; 0xc3e <.L64>

00000c0e <.L67>:
     c0e:	89 e3       	ldi	r24, 0x39	; 57
     c10:	90 e0       	ldi	r25, 0x00	; 0

00000c12 <.LM125>:
     c12:	fc 01       	movw	r30, r24
     c14:	80 81       	ld	r24, Z
     c16:	89 83       	std	Y+1, r24	; 0x01

00000c18 <.LM126>:
     c18:	12 c0       	rjmp	.+36     	; 0xc3e <.L64>

00000c1a <.L68>:
     c1a:	86 e3       	ldi	r24, 0x36	; 54
     c1c:	90 e0       	ldi	r25, 0x00	; 0

00000c1e <.LM128>:
     c1e:	fc 01       	movw	r30, r24
     c20:	80 81       	ld	r24, Z
     c22:	89 83       	std	Y+1, r24	; 0x01

00000c24 <.LM129>:
     c24:	0c c0       	rjmp	.+24     	; 0xc3e <.L64>

00000c26 <.L66>:
     c26:	83 e3       	ldi	r24, 0x33	; 51
     c28:	90 e0       	ldi	r25, 0x00	; 0

00000c2a <.LM131>:
     c2a:	fc 01       	movw	r30, r24
     c2c:	80 81       	ld	r24, Z
     c2e:	89 83       	std	Y+1, r24	; 0x01

00000c30 <.LM132>:
     c30:	06 c0       	rjmp	.+12     	; 0xc3e <.L64>

00000c32 <.L65>:
     c32:	80 e3       	ldi	r24, 0x30	; 48
     c34:	90 e0       	ldi	r25, 0x00	; 0

00000c36 <.LM134>:
     c36:	fc 01       	movw	r30, r24
     c38:	80 81       	ld	r24, Z
     c3a:	89 83       	std	Y+1, r24	; 0x01

00000c3c <.LM135>:
	...

00000c3e <.L64>:
     c3e:	89 81       	ldd	r24, Y+1	; 0x01

00000c40 <.LM137>:
     c40:	0f 90       	pop	r0
     c42:	0f 90       	pop	r0
     c44:	df 91       	pop	r29
     c46:	cf 91       	pop	r28
     c48:	08 95       	ret

00000c4a <__vector_6>:
     c4a:	1f 92       	push	r1
     c4c:	0f 92       	push	r0
     c4e:	0f b6       	in	r0, 0x3f	; 63
     c50:	0f 92       	push	r0
     c52:	11 24       	eor	r1, r1
     c54:	2f 93       	push	r18
     c56:	3f 93       	push	r19
     c58:	4f 93       	push	r20
     c5a:	5f 93       	push	r21
     c5c:	6f 93       	push	r22
     c5e:	7f 93       	push	r23
     c60:	8f 93       	push	r24
     c62:	9f 93       	push	r25
     c64:	af 93       	push	r26
     c66:	bf 93       	push	r27
     c68:	ef 93       	push	r30
     c6a:	ff 93       	push	r31
     c6c:	cf 93       	push	r28
     c6e:	df 93       	push	r29
     c70:	cd b7       	in	r28, 0x3d	; 61
     c72:	de b7       	in	r29, 0x3e	; 62

00000c74 <.LM1>:
     c74:	80 91 6f 00 	lds	r24, 0x006F	; 0x80006f <a_ptr1>
     c78:	90 91 70 00 	lds	r25, 0x0070	; 0x800070 <a_ptr1+0x1>

00000c7c <.LM2>:
     c7c:	89 2b       	or	r24, r25
     c7e:	31 f0       	breq	.+12     	; 0xc8c <.L3>

00000c80 <.LM3>:
     c80:	80 91 6f 00 	lds	r24, 0x006F	; 0x80006f <a_ptr1>
     c84:	90 91 70 00 	lds	r25, 0x0070	; 0x800070 <a_ptr1+0x1>
     c88:	fc 01       	movw	r30, r24
     c8a:	09 95       	icall

00000c8c <.L3>:
     c8c:	00 00       	nop
     c8e:	df 91       	pop	r29
     c90:	cf 91       	pop	r28
     c92:	ff 91       	pop	r31
     c94:	ef 91       	pop	r30
     c96:	bf 91       	pop	r27
     c98:	af 91       	pop	r26
     c9a:	9f 91       	pop	r25
     c9c:	8f 91       	pop	r24
     c9e:	7f 91       	pop	r23
     ca0:	6f 91       	pop	r22
     ca2:	5f 91       	pop	r21
     ca4:	4f 91       	pop	r20
     ca6:	3f 91       	pop	r19
     ca8:	2f 91       	pop	r18
     caa:	0f 90       	pop	r0
     cac:	0f be       	out	0x3f, r0	; 63
     cae:	0f 90       	pop	r0
     cb0:	1f 90       	pop	r1
     cb2:	18 95       	reti

00000cb4 <ICU_init>:
     cb4:	cf 93       	push	r28
     cb6:	df 93       	push	r29
     cb8:	00 d0       	rcall	.+0      	; 0xcba <L0^A>

00000cba <L0^A>:
     cba:	cd b7       	in	r28, 0x3d	; 61
     cbc:	de b7       	in	r29, 0x3e	; 62
     cbe:	9a 83       	std	Y+2, r25	; 0x02
     cc0:	89 83       	std	Y+1, r24	; 0x01

00000cc2 <.LM6>:
     cc2:	81 e3       	ldi	r24, 0x31	; 49
     cc4:	90 e0       	ldi	r25, 0x00	; 0
     cc6:	fc 01       	movw	r30, r24
     cc8:	40 81       	ld	r20, Z
     cca:	81 e3       	ldi	r24, 0x31	; 49
     ccc:	90 e0       	ldi	r25, 0x00	; 0
     cce:	4f 7b       	andi	r20, 0xBF	; 191
     cd0:	fc 01       	movw	r30, r24
     cd2:	40 83       	st	Z, r20

00000cd4 <.LM7>:
     cd4:	8f e4       	ldi	r24, 0x4F	; 79
     cd6:	90 e0       	ldi	r25, 0x00	; 0

00000cd8 <.LM8>:
     cd8:	4c e0       	ldi	r20, 0x0C	; 12
     cda:	fc 01       	movw	r30, r24
     cdc:	40 83       	st	Z, r20

00000cde <.LM9>:
     cde:	8e e4       	ldi	r24, 0x4E	; 78
     ce0:	90 e0       	ldi	r25, 0x00	; 0
     ce2:	fc 01       	movw	r30, r24
     ce4:	80 81       	ld	r24, Z

00000ce6 <.LM10>:
     ce6:	48 2f       	mov	r20, r24
     ce8:	4f 7b       	andi	r20, 0xBF	; 191

00000cea <.LM11>:
     cea:	89 81       	ldd	r24, Y+1	; 0x01
     cec:	9a 81       	ldd	r25, Y+2	; 0x02
     cee:	fc 01       	movw	r30, r24
     cf0:	81 81       	ldd	r24, Z+1	; 0x01
     cf2:	88 2f       	mov	r24, r24
     cf4:	90 e0       	ldi	r25, 0x00	; 0

00000cf6 <.LM12>:
     cf6:	38 2f       	mov	r19, r24
     cf8:	36 95       	lsr	r19
     cfa:	36 95       	lsr	r19
     cfc:	28 2f       	mov	r18, r24
     cfe:	22 95       	swap	r18
     d00:	22 0f       	add	r18, r18
     d02:	22 0f       	add	r18, r18
     d04:	20 7c       	andi	r18, 0xC0	; 192

00000d06 <.LM13>:
     d06:	82 2f       	mov	r24, r18
     d08:	24 2f       	mov	r18, r20
     d0a:	28 2b       	or	r18, r24

00000d0c <.LM14>:
     d0c:	8e e4       	ldi	r24, 0x4E	; 78
     d0e:	90 e0       	ldi	r25, 0x00	; 0

00000d10 <.LM15>:
     d10:	fc 01       	movw	r30, r24
     d12:	20 83       	st	Z, r18

00000d14 <.LM16>:
     d14:	8e e4       	ldi	r24, 0x4E	; 78
     d16:	90 e0       	ldi	r25, 0x00	; 0
     d18:	fc 01       	movw	r30, r24
     d1a:	80 81       	ld	r24, Z

00000d1c <.LM17>:
     d1c:	28 2f       	mov	r18, r24
     d1e:	28 7f       	andi	r18, 0xF8	; 248

00000d20 <.LM18>:
     d20:	89 81       	ldd	r24, Y+1	; 0x01
     d22:	9a 81       	ldd	r25, Y+2	; 0x02
     d24:	fc 01       	movw	r30, r24
     d26:	80 81       	ld	r24, Z

00000d28 <.LM19>:
     d28:	28 2b       	or	r18, r24

00000d2a <.LM20>:
     d2a:	8e e4       	ldi	r24, 0x4E	; 78
     d2c:	90 e0       	ldi	r25, 0x00	; 0

00000d2e <.LM21>:
     d2e:	fc 01       	movw	r30, r24
     d30:	20 83       	st	Z, r18

00000d32 <.LM22>:
     d32:	86 e4       	ldi	r24, 0x46	; 70
     d34:	90 e0       	ldi	r25, 0x00	; 0

00000d36 <.LM23>:
     d36:	fc 01       	movw	r30, r24
     d38:	11 82       	std	Z+1, r1	; 0x01
     d3a:	10 82       	st	Z, r1

00000d3c <.LM24>:
     d3c:	8c e4       	ldi	r24, 0x4C	; 76
     d3e:	90 e0       	ldi	r25, 0x00	; 0

00000d40 <.LM25>:
     d40:	fc 01       	movw	r30, r24
     d42:	11 82       	std	Z+1, r1	; 0x01
     d44:	10 82       	st	Z, r1

00000d46 <.LM26>:
     d46:	89 e5       	ldi	r24, 0x59	; 89
     d48:	90 e0       	ldi	r25, 0x00	; 0
     d4a:	fc 01       	movw	r30, r24
     d4c:	20 81       	ld	r18, Z
     d4e:	89 e5       	ldi	r24, 0x59	; 89
     d50:	90 e0       	ldi	r25, 0x00	; 0
     d52:	20 62       	ori	r18, 0x20	; 32
     d54:	fc 01       	movw	r30, r24
     d56:	20 83       	st	Z, r18

00000d58 <.LM27>:
     d58:	00 00       	nop
     d5a:	0f 90       	pop	r0
     d5c:	0f 90       	pop	r0
     d5e:	df 91       	pop	r29
     d60:	cf 91       	pop	r28
     d62:	08 95       	ret

00000d64 <ICU_setCallBack>:
     d64:	cf 93       	push	r28
     d66:	df 93       	push	r29
     d68:	00 d0       	rcall	.+0      	; 0xd6a <L0^A>

00000d6a <L0^A>:
     d6a:	cd b7       	in	r28, 0x3d	; 61
     d6c:	de b7       	in	r29, 0x3e	; 62
     d6e:	9a 83       	std	Y+2, r25	; 0x02
     d70:	89 83       	std	Y+1, r24	; 0x01

00000d72 <.LM29>:
     d72:	89 81       	ldd	r24, Y+1	; 0x01
     d74:	9a 81       	ldd	r25, Y+2	; 0x02
     d76:	90 93 70 00 	sts	0x0070, r25	; 0x800070 <a_ptr1+0x1>
     d7a:	80 93 6f 00 	sts	0x006F, r24	; 0x80006f <a_ptr1>

00000d7e <.LM30>:
     d7e:	00 00       	nop
     d80:	0f 90       	pop	r0
     d82:	0f 90       	pop	r0
     d84:	df 91       	pop	r29
     d86:	cf 91       	pop	r28
     d88:	08 95       	ret

00000d8a <ICU_setEdgeDetectionType>:
     d8a:	cf 93       	push	r28
     d8c:	df 93       	push	r29
     d8e:	0f 92       	push	r0
     d90:	cd b7       	in	r28, 0x3d	; 61
     d92:	de b7       	in	r29, 0x3e	; 62
     d94:	89 83       	std	Y+1, r24	; 0x01

00000d96 <.LM32>:
     d96:	8e e4       	ldi	r24, 0x4E	; 78
     d98:	90 e0       	ldi	r25, 0x00	; 0
     d9a:	fc 01       	movw	r30, r24
     d9c:	80 81       	ld	r24, Z

00000d9e <.LM33>:
     d9e:	48 2f       	mov	r20, r24
     da0:	4f 7b       	andi	r20, 0xBF	; 191

00000da2 <.LM34>:
     da2:	89 81       	ldd	r24, Y+1	; 0x01
     da4:	88 2f       	mov	r24, r24
     da6:	90 e0       	ldi	r25, 0x00	; 0
     da8:	38 2f       	mov	r19, r24
     daa:	36 95       	lsr	r19
     dac:	36 95       	lsr	r19
     dae:	28 2f       	mov	r18, r24
     db0:	22 95       	swap	r18
     db2:	22 0f       	add	r18, r18
     db4:	22 0f       	add	r18, r18
     db6:	20 7c       	andi	r18, 0xC0	; 192

00000db8 <.LM35>:
     db8:	82 2f       	mov	r24, r18
     dba:	24 2f       	mov	r18, r20
     dbc:	28 2b       	or	r18, r24

00000dbe <.LM36>:
     dbe:	8e e4       	ldi	r24, 0x4E	; 78
     dc0:	90 e0       	ldi	r25, 0x00	; 0

00000dc2 <.LM37>:
     dc2:	fc 01       	movw	r30, r24
     dc4:	20 83       	st	Z, r18

00000dc6 <.LM38>:
     dc6:	00 00       	nop
     dc8:	0f 90       	pop	r0
     dca:	df 91       	pop	r29
     dcc:	cf 91       	pop	r28
     dce:	08 95       	ret

00000dd0 <ICU_getInputCaptureValue>:
     dd0:	cf 93       	push	r28
     dd2:	df 93       	push	r29
     dd4:	cd b7       	in	r28, 0x3d	; 61
     dd6:	de b7       	in	r29, 0x3e	; 62

00000dd8 <.LM40>:
     dd8:	86 e4       	ldi	r24, 0x46	; 70
     dda:	90 e0       	ldi	r25, 0x00	; 0
     ddc:	fc 01       	movw	r30, r24
     dde:	80 81       	ld	r24, Z
     de0:	91 81       	ldd	r25, Z+1	; 0x01

00000de2 <.LM41>:
     de2:	df 91       	pop	r29
     de4:	cf 91       	pop	r28
     de6:	08 95       	ret

00000de8 <ICU_clearTimerValue>:
     de8:	cf 93       	push	r28
     dea:	df 93       	push	r29
     dec:	cd b7       	in	r28, 0x3d	; 61
     dee:	de b7       	in	r29, 0x3e	; 62

00000df0 <.LM43>:
     df0:	8c e4       	ldi	r24, 0x4C	; 76
     df2:	90 e0       	ldi	r25, 0x00	; 0

00000df4 <.LM44>:
     df4:	fc 01       	movw	r30, r24
     df6:	11 82       	std	Z+1, r1	; 0x01
     df8:	10 82       	st	Z, r1

00000dfa <.LM45>:
     dfa:	00 00       	nop
     dfc:	df 91       	pop	r29
     dfe:	cf 91       	pop	r28
     e00:	08 95       	ret

00000e02 <ICU_deInit>:
     e02:	cf 93       	push	r28
     e04:	df 93       	push	r29
     e06:	cd b7       	in	r28, 0x3d	; 61
     e08:	de b7       	in	r29, 0x3e	; 62

00000e0a <.LM47>:
     e0a:	89 e5       	ldi	r24, 0x59	; 89
     e0c:	90 e0       	ldi	r25, 0x00	; 0
     e0e:	fc 01       	movw	r30, r24
     e10:	20 81       	ld	r18, Z
     e12:	89 e5       	ldi	r24, 0x59	; 89
     e14:	90 e0       	ldi	r25, 0x00	; 0
     e16:	2f 7d       	andi	r18, 0xDF	; 223
     e18:	fc 01       	movw	r30, r24
     e1a:	20 83       	st	Z, r18

00000e1c <.LM48>:
     e1c:	00 00       	nop
     e1e:	df 91       	pop	r29
     e20:	cf 91       	pop	r28
     e22:	08 95       	ret

00000e24 <LCD_init>:
     e24:	cf 93       	push	r28
     e26:	df 93       	push	r29
     e28:	cd b7       	in	r28, 0x3d	; 61
     e2a:	de b7       	in	r29, 0x3e	; 62
     e2c:	a2 97       	sbiw	r28, 0x22	; 34
     e2e:	0f b6       	in	r0, 0x3f	; 63
     e30:	f8 94       	cli
     e32:	de bf       	out	0x3e, r29	; 62
     e34:	0f be       	out	0x3f, r0	; 63
     e36:	cd bf       	out	0x3d, r28	; 61

00000e38 <.LM1>:
     e38:	41 e0       	ldi	r20, 0x01	; 1
     e3a:	60 e0       	ldi	r22, 0x00	; 0
     e3c:	81 e0       	ldi	r24, 0x01	; 1
     e3e:	0e 94 03 03 	call	0x606	; 0x606 <GPIO_setupPinDirection>

00000e42 <.LM2>:
     e42:	41 e0       	ldi	r20, 0x01	; 1
     e44:	61 e0       	ldi	r22, 0x01	; 1
     e46:	81 e0       	ldi	r24, 0x01	; 1
     e48:	0e 94 03 03 	call	0x606	; 0x606 <GPIO_setupPinDirection>
     e4c:	80 e0       	ldi	r24, 0x00	; 0
     e4e:	90 e0       	ldi	r25, 0x00	; 0
     e50:	a0 ea       	ldi	r26, 0xA0	; 160
     e52:	b1 e4       	ldi	r27, 0x41	; 65
     e54:	89 83       	std	Y+1, r24	; 0x01
     e56:	9a 83       	std	Y+2, r25	; 0x02
     e58:	ab 83       	std	Y+3, r26	; 0x03
     e5a:	bc 83       	std	Y+4, r27	; 0x04

00000e5c <.LM3>:
     e5c:	20 e0       	ldi	r18, 0x00	; 0
     e5e:	30 e0       	ldi	r19, 0x00	; 0
     e60:	4a ef       	ldi	r20, 0xFA	; 250
     e62:	54 e4       	ldi	r21, 0x44	; 68
     e64:	69 81       	ldd	r22, Y+1	; 0x01
     e66:	7a 81       	ldd	r23, Y+2	; 0x02
     e68:	8b 81       	ldd	r24, Y+3	; 0x03
     e6a:	9c 81       	ldd	r25, Y+4	; 0x04
     e6c:	0e 94 95 12 	call	0x252a	; 0x252a <__mulsf3>
     e70:	6b 8b       	std	Y+19, r22	; 0x13
     e72:	7c 8b       	std	Y+20, r23	; 0x14
     e74:	8d 8b       	std	Y+21, r24	; 0x15
     e76:	9e 8b       	std	Y+22, r25	; 0x16
     e78:	8b 89       	ldd	r24, Y+19	; 0x13
     e7a:	9c 89       	ldd	r25, Y+20	; 0x14
     e7c:	ad 89       	ldd	r26, Y+21	; 0x15
     e7e:	be 89       	ldd	r27, Y+22	; 0x16
     e80:	8d 83       	std	Y+5, r24	; 0x05
     e82:	9e 83       	std	Y+6, r25	; 0x06
     e84:	af 83       	std	Y+7, r26	; 0x07
     e86:	b8 87       	std	Y+8, r27	; 0x08

00000e88 <.LM4>:
     e88:	20 e0       	ldi	r18, 0x00	; 0
     e8a:	30 e0       	ldi	r19, 0x00	; 0
     e8c:	40 e8       	ldi	r20, 0x80	; 128
     e8e:	5f e3       	ldi	r21, 0x3F	; 63
     e90:	6d 81       	ldd	r22, Y+5	; 0x05
     e92:	7e 81       	ldd	r23, Y+6	; 0x06
     e94:	8f 81       	ldd	r24, Y+7	; 0x07
     e96:	98 85       	ldd	r25, Y+8	; 0x08
     e98:	0e 94 38 11 	call	0x2270	; 0x2270 <__cmpsf2>
     e9c:	88 23       	and	r24, r24
     e9e:	2c f4       	brge	.+10     	; 0xeaa <.L12>

00000ea0 <.LM5>:
     ea0:	81 e0       	ldi	r24, 0x01	; 1
     ea2:	90 e0       	ldi	r25, 0x00	; 0
     ea4:	9a 87       	std	Y+10, r25	; 0x0a
     ea6:	89 87       	std	Y+9, r24	; 0x09
     ea8:	54 c0       	rjmp	.+168    	; 0xf52 <.L4>

00000eaa <.L12>:
     eaa:	20 e0       	ldi	r18, 0x00	; 0
     eac:	3f ef       	ldi	r19, 0xFF	; 255
     eae:	4f e7       	ldi	r20, 0x7F	; 127
     eb0:	57 e4       	ldi	r21, 0x47	; 71
     eb2:	6d 81       	ldd	r22, Y+5	; 0x05
     eb4:	7e 81       	ldd	r23, Y+6	; 0x06
     eb6:	8f 81       	ldd	r24, Y+7	; 0x07
     eb8:	98 85       	ldd	r25, Y+8	; 0x08
     eba:	0e 94 90 12 	call	0x2520	; 0x2520 <__gesf2>
     ebe:	18 16       	cp	r1, r24
     ec0:	d4 f5       	brge	.+116    	; 0xf36 <.L13>

00000ec2 <.LM7>:
     ec2:	20 e0       	ldi	r18, 0x00	; 0
     ec4:	30 e0       	ldi	r19, 0x00	; 0
     ec6:	40 e2       	ldi	r20, 0x20	; 32
     ec8:	51 e4       	ldi	r21, 0x41	; 65
     eca:	69 81       	ldd	r22, Y+1	; 0x01
     ecc:	7a 81       	ldd	r23, Y+2	; 0x02
     ece:	8b 81       	ldd	r24, Y+3	; 0x03
     ed0:	9c 81       	ldd	r25, Y+4	; 0x04
     ed2:	0e 94 95 12 	call	0x252a	; 0x252a <__mulsf3>
     ed6:	6f 8b       	std	Y+23, r22	; 0x17
     ed8:	78 8f       	std	Y+24, r23	; 0x18
     eda:	89 8f       	std	Y+25, r24	; 0x19
     edc:	9a 8f       	std	Y+26, r25	; 0x1a
     ede:	8f 89       	ldd	r24, Y+23	; 0x17
     ee0:	98 8d       	ldd	r25, Y+24	; 0x18
     ee2:	a9 8d       	ldd	r26, Y+25	; 0x19
     ee4:	ba 8d       	ldd	r27, Y+26	; 0x1a
     ee6:	8f 87       	std	Y+15, r24	; 0x0f
     ee8:	98 8b       	std	Y+16, r25	; 0x10
     eea:	a9 8b       	std	Y+17, r26	; 0x11
     eec:	ba 8b       	std	Y+18, r27	; 0x12

00000eee <.LM8>:
     eee:	6f 85       	ldd	r22, Y+15	; 0x0f
     ef0:	78 89       	ldd	r23, Y+16	; 0x10
     ef2:	89 89       	ldd	r24, Y+17	; 0x11
     ef4:	9a 89       	ldd	r25, Y+18	; 0x12
     ef6:	0e 94 af 11 	call	0x235e	; 0x235e <__fixunssfsi>
     efa:	6b 8f       	std	Y+27, r22	; 0x1b
     efc:	7c 8f       	std	Y+28, r23	; 0x1c
     efe:	8d 8f       	std	Y+29, r24	; 0x1d
     f00:	9e 8f       	std	Y+30, r25	; 0x1e
     f02:	ab 8d       	ldd	r26, Y+27	; 0x1b
     f04:	bc 8d       	ldd	r27, Y+28	; 0x1c
     f06:	ba 87       	std	Y+10, r27	; 0x0a
     f08:	a9 87       	std	Y+9, r26	; 0x09

00000f0a <.LM9>:
     f0a:	10 c0       	rjmp	.+32     	; 0xf2c <.L7>

00000f0c <.L8>:
     f0c:	88 ec       	ldi	r24, 0xC8	; 200
     f0e:	90 e0       	ldi	r25, 0x00	; 0
     f10:	9c 87       	std	Y+12, r25	; 0x0c
     f12:	8b 87       	std	Y+11, r24	; 0x0b

00000f14 <.LM10>:
     f14:	8b 85       	ldd	r24, Y+11	; 0x0b
     f16:	9c 85       	ldd	r25, Y+12	; 0x0c

00000f18 <.L1^B1>:
     f18:	01 97       	sbiw	r24, 0x01	; 1
     f1a:	f1 f7       	brne	.-4      	; 0xf18 <.L1^B1>
     f1c:	9c 87       	std	Y+12, r25	; 0x0c
     f1e:	8b 87       	std	Y+11, r24	; 0x0b

00000f20 <.LM11>:
	...

00000f22 <.LM12>:
     f22:	89 85       	ldd	r24, Y+9	; 0x09
     f24:	9a 85       	ldd	r25, Y+10	; 0x0a
     f26:	01 97       	sbiw	r24, 0x01	; 1
     f28:	9a 87       	std	Y+10, r25	; 0x0a
     f2a:	89 87       	std	Y+9, r24	; 0x09

00000f2c <.L7>:
     f2c:	89 85       	ldd	r24, Y+9	; 0x09
     f2e:	9a 85       	ldd	r25, Y+10	; 0x0a
     f30:	89 2b       	or	r24, r25
     f32:	61 f7       	brne	.-40     	; 0xf0c <.L8>

00000f34 <.LM14>:
     f34:	19 c0       	rjmp	.+50     	; 0xf68 <.L9>

00000f36 <.L13>:
     f36:	6d 81       	ldd	r22, Y+5	; 0x05
     f38:	7e 81       	ldd	r23, Y+6	; 0x06
     f3a:	8f 81       	ldd	r24, Y+7	; 0x07
     f3c:	98 85       	ldd	r25, Y+8	; 0x08
     f3e:	0e 94 af 11 	call	0x235e	; 0x235e <__fixunssfsi>
     f42:	6f 8f       	std	Y+31, r22	; 0x1f
     f44:	78 a3       	std	Y+32, r23	; 0x20
     f46:	89 a3       	std	Y+33, r24	; 0x21
     f48:	9a a3       	std	Y+34, r25	; 0x22
     f4a:	8f 8d       	ldd	r24, Y+31	; 0x1f
     f4c:	98 a1       	ldd	r25, Y+32	; 0x20
     f4e:	9a 87       	std	Y+10, r25	; 0x0a
     f50:	89 87       	std	Y+9, r24	; 0x09

00000f52 <.L4>:
     f52:	89 85       	ldd	r24, Y+9	; 0x09
     f54:	9a 85       	ldd	r25, Y+10	; 0x0a
     f56:	9e 87       	std	Y+14, r25	; 0x0e
     f58:	8d 87       	std	Y+13, r24	; 0x0d

00000f5a <.LM16>:
     f5a:	8d 85       	ldd	r24, Y+13	; 0x0d
     f5c:	9e 85       	ldd	r25, Y+14	; 0x0e

00000f5e <.L1^B2>:
     f5e:	01 97       	sbiw	r24, 0x01	; 1
     f60:	f1 f7       	brne	.-4      	; 0xf5e <.L1^B2>
     f62:	9e 87       	std	Y+14, r25	; 0x0e
     f64:	8d 87       	std	Y+13, r24	; 0x0d

00000f66 <.LM17>:
	...

00000f68 <.L9>:
     f68:	6f ef       	ldi	r22, 0xFF	; 255
     f6a:	80 e0       	ldi	r24, 0x00	; 0
     f6c:	0e 94 71 05 	call	0xae2	; 0xae2 <GPIO_setupPortDirection>

00000f70 <.LM19>:
     f70:	88 e3       	ldi	r24, 0x38	; 56
     f72:	0e 94 cb 07 	call	0xf96	; 0xf96 <LCD_sendCommand>

00000f76 <.LM20>:
     f76:	8c e0       	ldi	r24, 0x0C	; 12
     f78:	0e 94 cb 07 	call	0xf96	; 0xf96 <LCD_sendCommand>

00000f7c <.LM21>:
     f7c:	81 e0       	ldi	r24, 0x01	; 1
     f7e:	0e 94 cb 07 	call	0xf96	; 0xf96 <LCD_sendCommand>

00000f82 <.LM22>:
     f82:	00 00       	nop
     f84:	a2 96       	adiw	r28, 0x22	; 34
     f86:	0f b6       	in	r0, 0x3f	; 63
     f88:	f8 94       	cli
     f8a:	de bf       	out	0x3e, r29	; 62
     f8c:	0f be       	out	0x3f, r0	; 63
     f8e:	cd bf       	out	0x3d, r28	; 61
     f90:	df 91       	pop	r29
     f92:	cf 91       	pop	r28
     f94:	08 95       	ret

00000f96 <LCD_sendCommand>:
     f96:	0f 93       	push	r16
     f98:	1f 93       	push	r17
     f9a:	cf 93       	push	r28
     f9c:	df 93       	push	r29
     f9e:	cd b7       	in	r28, 0x3d	; 61
     fa0:	de b7       	in	r29, 0x3e	; 62
     fa2:	c5 5e       	subi	r28, 0xE5	; 229
     fa4:	d1 09       	sbc	r29, r1
     fa6:	0f b6       	in	r0, 0x3f	; 63
     fa8:	f8 94       	cli
     faa:	de bf       	out	0x3e, r29	; 62
     fac:	0f be       	out	0x3f, r0	; 63
     fae:	cd bf       	out	0x3d, r28	; 61
     fb0:	9e 01       	movw	r18, r28
     fb2:	2f 59       	subi	r18, 0x9F	; 159
     fb4:	3f 4f       	sbci	r19, 0xFF	; 255
     fb6:	d9 01       	movw	r26, r18
     fb8:	8c 93       	st	X, r24

00000fba <.LM24>:
     fba:	40 e0       	ldi	r20, 0x00	; 0
     fbc:	60 e0       	ldi	r22, 0x00	; 0
     fbe:	81 e0       	ldi	r24, 0x01	; 1
     fc0:	0e 94 f4 03 	call	0x7e8	; 0x7e8 <GPIO_writePin>
     fc4:	9e 01       	movw	r18, r28
     fc6:	2f 5b       	subi	r18, 0xBF	; 191
     fc8:	3f 4f       	sbci	r19, 0xFF	; 255
     fca:	80 e0       	ldi	r24, 0x00	; 0
     fcc:	90 e0       	ldi	r25, 0x00	; 0
     fce:	a0 e8       	ldi	r26, 0x80	; 128
     fd0:	bf e3       	ldi	r27, 0x3F	; 63
     fd2:	f9 01       	movw	r30, r18
     fd4:	80 83       	st	Z, r24
     fd6:	91 83       	std	Z+1, r25	; 0x01
     fd8:	a2 83       	std	Z+2, r26	; 0x02
     fda:	b3 83       	std	Z+3, r27	; 0x03

00000fdc <.LM25>:
     fdc:	8e 01       	movw	r16, r28
     fde:	0b 5b       	subi	r16, 0xBB	; 187
     fe0:	1f 4f       	sbci	r17, 0xFF	; 255
     fe2:	ce 01       	movw	r24, r28
     fe4:	8f 5b       	subi	r24, 0xBF	; 191
     fe6:	9f 4f       	sbci	r25, 0xFF	; 255
     fe8:	2b ea       	ldi	r18, 0xAB	; 171
     fea:	3a ea       	ldi	r19, 0xAA	; 170
     fec:	4a e2       	ldi	r20, 0x2A	; 42
     fee:	50 e4       	ldi	r21, 0x40	; 64
     ff0:	dc 01       	movw	r26, r24
     ff2:	6d 91       	ld	r22, X+
     ff4:	7d 91       	ld	r23, X+
     ff6:	8d 91       	ld	r24, X+
     ff8:	9c 91       	ld	r25, X
     ffa:	0e 94 95 12 	call	0x252a	; 0x252a <__mulsf3>
     ffe:	e2 96       	adiw	r28, 0x32	; 50
    1000:	6c af       	std	Y+60, r22	; 0x3c
    1002:	7d af       	std	Y+61, r23	; 0x3d
    1004:	8e af       	std	Y+62, r24	; 0x3e
    1006:	9f af       	std	Y+63, r25	; 0x3f
    1008:	e2 97       	sbiw	r28, 0x32	; 50
    100a:	e2 96       	adiw	r28, 0x32	; 50
    100c:	2c ad       	ldd	r18, Y+60	; 0x3c
    100e:	3d ad       	ldd	r19, Y+61	; 0x3d
    1010:	4e ad       	ldd	r20, Y+62	; 0x3e
    1012:	5f ad       	ldd	r21, Y+63	; 0x3f
    1014:	e2 97       	sbiw	r28, 0x32	; 50
    1016:	d8 01       	movw	r26, r16
    1018:	2d 93       	st	X+, r18
    101a:	3d 93       	st	X+, r19
    101c:	4d 93       	st	X+, r20
    101e:	5c 93       	st	X, r21
    1020:	13 97       	sbiw	r26, 0x03	; 3

00001022 <.LM26>:
    1022:	8e 01       	movw	r16, r28
    1024:	07 5b       	subi	r16, 0xB7	; 183
    1026:	1f 4f       	sbci	r17, 0xFF	; 255
    1028:	ce 01       	movw	r24, r28
    102a:	8f 5b       	subi	r24, 0xBF	; 191
    102c:	9f 4f       	sbci	r25, 0xFF	; 255
    102e:	dc 01       	movw	r26, r24
    1030:	2d 91       	ld	r18, X+
    1032:	3d 91       	ld	r19, X+
    1034:	4d 91       	ld	r20, X+
    1036:	5c 91       	ld	r21, X
    1038:	e6 96       	adiw	r28, 0x36	; 54
    103a:	2c af       	std	Y+60, r18	; 0x3c
    103c:	3d af       	std	Y+61, r19	; 0x3d
    103e:	4e af       	std	Y+62, r20	; 0x3e
    1040:	5f af       	std	Y+63, r21	; 0x3f
    1042:	e6 97       	sbiw	r28, 0x36	; 54
    1044:	e6 96       	adiw	r28, 0x36	; 54
    1046:	2c ad       	ldd	r18, Y+60	; 0x3c
    1048:	3d ad       	ldd	r19, Y+61	; 0x3d
    104a:	4e ad       	ldd	r20, Y+62	; 0x3e
    104c:	5f ad       	ldd	r21, Y+63	; 0x3f
    104e:	e6 97       	sbiw	r28, 0x36	; 54
    1050:	e6 96       	adiw	r28, 0x36	; 54
    1052:	6c ad       	ldd	r22, Y+60	; 0x3c
    1054:	7d ad       	ldd	r23, Y+61	; 0x3d
    1056:	8e ad       	ldd	r24, Y+62	; 0x3e
    1058:	9f ad       	ldd	r25, Y+63	; 0x3f
    105a:	e6 97       	sbiw	r28, 0x36	; 54
    105c:	0e 94 cc 10 	call	0x2198	; 0x2198 <__addsf3>
    1060:	ea 96       	adiw	r28, 0x3a	; 58
    1062:	6c af       	std	Y+60, r22	; 0x3c
    1064:	7d af       	std	Y+61, r23	; 0x3d
    1066:	8e af       	std	Y+62, r24	; 0x3e
    1068:	9f af       	std	Y+63, r25	; 0x3f
    106a:	ea 97       	sbiw	r28, 0x3a	; 58
    106c:	ea 96       	adiw	r28, 0x3a	; 58
    106e:	2c ad       	ldd	r18, Y+60	; 0x3c
    1070:	3d ad       	ldd	r19, Y+61	; 0x3d
    1072:	4e ad       	ldd	r20, Y+62	; 0x3e
    1074:	5f ad       	ldd	r21, Y+63	; 0x3f
    1076:	ea 97       	sbiw	r28, 0x3a	; 58
    1078:	d8 01       	movw	r26, r16
    107a:	2d 93       	st	X+, r18
    107c:	3d 93       	st	X+, r19
    107e:	4d 93       	st	X+, r20
    1080:	5c 93       	st	X, r21
    1082:	13 97       	sbiw	r26, 0x03	; 3

00001084 <.LM27>:
    1084:	ce 01       	movw	r24, r28
    1086:	8b 5b       	subi	r24, 0xBB	; 187
    1088:	9f 4f       	sbci	r25, 0xFF	; 255
    108a:	20 e0       	ldi	r18, 0x00	; 0
    108c:	30 e0       	ldi	r19, 0x00	; 0
    108e:	40 e8       	ldi	r20, 0x80	; 128
    1090:	5f e3       	ldi	r21, 0x3F	; 63
    1092:	fc 01       	movw	r30, r24
    1094:	60 81       	ld	r22, Z
    1096:	71 81       	ldd	r23, Z+1	; 0x01
    1098:	82 81       	ldd	r24, Z+2	; 0x02
    109a:	93 81       	ldd	r25, Z+3	; 0x03
    109c:	0e 94 38 11 	call	0x2270	; 0x2270 <__cmpsf2>
    10a0:	88 23       	and	r24, r24
    10a2:	3c f4       	brge	.+14     	; 0x10b2 <.L78>

000010a4 <.LM28>:
    10a4:	ce 01       	movw	r24, r28
    10a6:	83 5b       	subi	r24, 0xB3	; 179
    10a8:	9f 4f       	sbci	r25, 0xFF	; 255
    10aa:	21 e0       	ldi	r18, 0x01	; 1
    10ac:	dc 01       	movw	r26, r24
    10ae:	2c 93       	st	X, r18
    10b0:	93 c1       	rjmp	.+806    	; 0x13d8 <.L17>

000010b2 <.L78>:
    10b2:	ce 01       	movw	r24, r28
    10b4:	87 5b       	subi	r24, 0xB7	; 183
    10b6:	9f 4f       	sbci	r25, 0xFF	; 255
    10b8:	20 e0       	ldi	r18, 0x00	; 0
    10ba:	3f ef       	ldi	r19, 0xFF	; 255
    10bc:	4f e7       	ldi	r20, 0x7F	; 127
    10be:	57 e4       	ldi	r21, 0x47	; 71
    10c0:	fc 01       	movw	r30, r24
    10c2:	60 81       	ld	r22, Z
    10c4:	71 81       	ldd	r23, Z+1	; 0x01
    10c6:	82 81       	ldd	r24, Z+2	; 0x02
    10c8:	93 81       	ldd	r25, Z+3	; 0x03
    10ca:	0e 94 90 12 	call	0x2520	; 0x2520 <__gesf2>
    10ce:	18 16       	cp	r1, r24
    10d0:	0c f0       	brlt	.+2      	; 0x10d4 <.LM30>

000010d2 <L0^A>:
    10d2:	1c c1       	rjmp	.+568    	; 0x130c <.L79>

000010d4 <.LM30>:
    10d4:	ce 01       	movw	r24, r28
    10d6:	8f 5b       	subi	r24, 0xBF	; 191
    10d8:	9f 4f       	sbci	r25, 0xFF	; 255
    10da:	20 e0       	ldi	r18, 0x00	; 0
    10dc:	30 e0       	ldi	r19, 0x00	; 0
    10de:	4a e7       	ldi	r20, 0x7A	; 122
    10e0:	54 e4       	ldi	r21, 0x44	; 68
    10e2:	dc 01       	movw	r26, r24
    10e4:	6d 91       	ld	r22, X+
    10e6:	7d 91       	ld	r23, X+
    10e8:	8d 91       	ld	r24, X+
    10ea:	9c 91       	ld	r25, X
    10ec:	0e 94 3d 11 	call	0x227a	; 0x227a <__divsf3>
    10f0:	ee 96       	adiw	r28, 0x3e	; 62
    10f2:	6c af       	std	Y+60, r22	; 0x3c
    10f4:	7d af       	std	Y+61, r23	; 0x3d
    10f6:	8e af       	std	Y+62, r24	; 0x3e
    10f8:	9f af       	std	Y+63, r25	; 0x3f
    10fa:	ee 97       	sbiw	r28, 0x3e	; 62
    10fc:	ee 96       	adiw	r28, 0x3e	; 62
    10fe:	8c ad       	ldd	r24, Y+60	; 0x3c
    1100:	9d ad       	ldd	r25, Y+61	; 0x3d
    1102:	ae ad       	ldd	r26, Y+62	; 0x3e
    1104:	bf ad       	ldd	r27, Y+63	; 0x3f
    1106:	ee 97       	sbiw	r28, 0x3e	; 62
    1108:	9e 01       	movw	r18, r28
    110a:	22 5b       	subi	r18, 0xB2	; 178
    110c:	3f 4f       	sbci	r19, 0xFF	; 255
    110e:	f9 01       	movw	r30, r18
    1110:	80 83       	st	Z, r24
    1112:	91 83       	std	Z+1, r25	; 0x01
    1114:	a2 83       	std	Z+2, r26	; 0x02
    1116:	b3 83       	std	Z+3, r27	; 0x03

00001118 <.LM31>:
    1118:	8e 01       	movw	r16, r28
    111a:	0e 5a       	subi	r16, 0xAE	; 174
    111c:	1f 4f       	sbci	r17, 0xFF	; 255
    111e:	ce 01       	movw	r24, r28
    1120:	82 5b       	subi	r24, 0xB2	; 178
    1122:	9f 4f       	sbci	r25, 0xFF	; 255
    1124:	20 e0       	ldi	r18, 0x00	; 0
    1126:	30 e0       	ldi	r19, 0x00	; 0
    1128:	4a ef       	ldi	r20, 0xFA	; 250
    112a:	54 e4       	ldi	r21, 0x44	; 68
    112c:	dc 01       	movw	r26, r24
    112e:	6d 91       	ld	r22, X+
    1130:	7d 91       	ld	r23, X+
    1132:	8d 91       	ld	r24, X+
    1134:	9c 91       	ld	r25, X
    1136:	0e 94 95 12 	call	0x252a	; 0x252a <__mulsf3>
    113a:	c2 58       	subi	r28, 0x82	; 130
    113c:	df 4f       	sbci	r29, 0xFF	; 255
    113e:	68 83       	st	Y, r22
    1140:	79 83       	std	Y+1, r23	; 0x01
    1142:	8a 83       	std	Y+2, r24	; 0x02
    1144:	9b 83       	std	Y+3, r25	; 0x03
    1146:	ce 57       	subi	r28, 0x7E	; 126
    1148:	d0 40       	sbci	r29, 0x00	; 0
    114a:	c2 58       	subi	r28, 0x82	; 130
    114c:	df 4f       	sbci	r29, 0xFF	; 255
    114e:	28 81       	ld	r18, Y
    1150:	39 81       	ldd	r19, Y+1	; 0x01
    1152:	4a 81       	ldd	r20, Y+2	; 0x02
    1154:	5b 81       	ldd	r21, Y+3	; 0x03
    1156:	ce 57       	subi	r28, 0x7E	; 126
    1158:	d0 40       	sbci	r29, 0x00	; 0
    115a:	d8 01       	movw	r26, r16
    115c:	2d 93       	st	X+, r18
    115e:	3d 93       	st	X+, r19
    1160:	4d 93       	st	X+, r20
    1162:	5c 93       	st	X, r21
    1164:	13 97       	sbiw	r26, 0x03	; 3

00001166 <.LM32>:
    1166:	ce 01       	movw	r24, r28
    1168:	8e 5a       	subi	r24, 0xAE	; 174
    116a:	9f 4f       	sbci	r25, 0xFF	; 255
    116c:	20 e0       	ldi	r18, 0x00	; 0
    116e:	30 e0       	ldi	r19, 0x00	; 0
    1170:	40 e8       	ldi	r20, 0x80	; 128
    1172:	5f e3       	ldi	r21, 0x3F	; 63
    1174:	fc 01       	movw	r30, r24
    1176:	60 81       	ld	r22, Z
    1178:	71 81       	ldd	r23, Z+1	; 0x01
    117a:	82 81       	ldd	r24, Z+2	; 0x02
    117c:	93 81       	ldd	r25, Z+3	; 0x03
    117e:	0e 94 38 11 	call	0x2270	; 0x2270 <__cmpsf2>
    1182:	88 23       	and	r24, r24
    1184:	4c f4       	brge	.+18     	; 0x1198 <.L80>

00001186 <.LM33>:
    1186:	ce 01       	movw	r24, r28
    1188:	8a 5a       	subi	r24, 0xAA	; 170
    118a:	9f 4f       	sbci	r25, 0xFF	; 255
    118c:	21 e0       	ldi	r18, 0x01	; 1
    118e:	30 e0       	ldi	r19, 0x00	; 0
    1190:	dc 01       	movw	r26, r24
    1192:	2d 93       	st	X+, r18
    1194:	3c 93       	st	X, r19
    1196:	9e c0       	rjmp	.+316    	; 0x12d4 <.L22>

00001198 <.L80>:
    1198:	ce 01       	movw	r24, r28
    119a:	8e 5a       	subi	r24, 0xAE	; 174
    119c:	9f 4f       	sbci	r25, 0xFF	; 255
    119e:	20 e0       	ldi	r18, 0x00	; 0
    11a0:	3f ef       	ldi	r19, 0xFF	; 255
    11a2:	4f e7       	ldi	r20, 0x7F	; 127
    11a4:	57 e4       	ldi	r21, 0x47	; 71
    11a6:	fc 01       	movw	r30, r24
    11a8:	60 81       	ld	r22, Z
    11aa:	71 81       	ldd	r23, Z+1	; 0x01
    11ac:	82 81       	ldd	r24, Z+2	; 0x02
    11ae:	93 81       	ldd	r25, Z+3	; 0x03
    11b0:	0e 94 90 12 	call	0x2520	; 0x2520 <__gesf2>
    11b4:	18 16       	cp	r1, r24
    11b6:	0c f0       	brlt	.+2      	; 0x11ba <.LM35>

000011b8 <L0^A>:
    11b8:	6f c0       	rjmp	.+222    	; 0x1298 <.L81>

000011ba <.LM35>:
    11ba:	ce 01       	movw	r24, r28
    11bc:	82 5b       	subi	r24, 0xB2	; 178
    11be:	9f 4f       	sbci	r25, 0xFF	; 255
    11c0:	20 e0       	ldi	r18, 0x00	; 0
    11c2:	30 e0       	ldi	r19, 0x00	; 0
    11c4:	40 e2       	ldi	r20, 0x20	; 32
    11c6:	51 e4       	ldi	r21, 0x41	; 65
    11c8:	dc 01       	movw	r26, r24
    11ca:	6d 91       	ld	r22, X+
    11cc:	7d 91       	ld	r23, X+
    11ce:	8d 91       	ld	r24, X+
    11d0:	9c 91       	ld	r25, X
    11d2:	0e 94 95 12 	call	0x252a	; 0x252a <__mulsf3>
    11d6:	ce 57       	subi	r28, 0x7E	; 126
    11d8:	df 4f       	sbci	r29, 0xFF	; 255
    11da:	68 83       	st	Y, r22
    11dc:	79 83       	std	Y+1, r23	; 0x01
    11de:	8a 83       	std	Y+2, r24	; 0x02
    11e0:	9b 83       	std	Y+3, r25	; 0x03
    11e2:	c2 58       	subi	r28, 0x82	; 130
    11e4:	d0 40       	sbci	r29, 0x00	; 0
    11e6:	ce 57       	subi	r28, 0x7E	; 126
    11e8:	df 4f       	sbci	r29, 0xFF	; 255
    11ea:	28 81       	ld	r18, Y
    11ec:	39 81       	ldd	r19, Y+1	; 0x01
    11ee:	4a 81       	ldd	r20, Y+2	; 0x02
    11f0:	5b 81       	ldd	r21, Y+3	; 0x03
    11f2:	c2 58       	subi	r28, 0x82	; 130
    11f4:	d0 40       	sbci	r29, 0x00	; 0
    11f6:	ae 96       	adiw	r28, 0x2e	; 46
    11f8:	2c af       	std	Y+60, r18	; 0x3c
    11fa:	3d af       	std	Y+61, r19	; 0x3d
    11fc:	4e af       	std	Y+62, r20	; 0x3e
    11fe:	5f af       	std	Y+63, r21	; 0x3f
    1200:	ae 97       	sbiw	r28, 0x2e	; 46

00001202 <.LM36>:
    1202:	8e 01       	movw	r16, r28
    1204:	0a 5a       	subi	r16, 0xAA	; 170
    1206:	1f 4f       	sbci	r17, 0xFF	; 255
    1208:	ae 96       	adiw	r28, 0x2e	; 46
    120a:	6c ad       	ldd	r22, Y+60	; 0x3c
    120c:	7d ad       	ldd	r23, Y+61	; 0x3d
    120e:	8e ad       	ldd	r24, Y+62	; 0x3e
    1210:	9f ad       	ldd	r25, Y+63	; 0x3f
    1212:	ae 97       	sbiw	r28, 0x2e	; 46
    1214:	0e 94 af 11 	call	0x235e	; 0x235e <__fixunssfsi>
    1218:	ca 57       	subi	r28, 0x7A	; 122
    121a:	df 4f       	sbci	r29, 0xFF	; 255
    121c:	68 83       	st	Y, r22
    121e:	79 83       	std	Y+1, r23	; 0x01
    1220:	8a 83       	std	Y+2, r24	; 0x02
    1222:	9b 83       	std	Y+3, r25	; 0x03
    1224:	c6 58       	subi	r28, 0x86	; 134
    1226:	d0 40       	sbci	r29, 0x00	; 0
    1228:	ca 57       	subi	r28, 0x7A	; 122
    122a:	df 4f       	sbci	r29, 0xFF	; 255
    122c:	e8 81       	ld	r30, Y
    122e:	f9 81       	ldd	r31, Y+1	; 0x01
    1230:	c6 58       	subi	r28, 0x86	; 134
    1232:	d0 40       	sbci	r29, 0x00	; 0
    1234:	d8 01       	movw	r26, r16
    1236:	ed 93       	st	X+, r30
    1238:	fc 93       	st	X, r31

0000123a <.LM37>:
    123a:	25 c0       	rjmp	.+74     	; 0x1286 <.L25>

0000123c <.L26>:
    123c:	ce 01       	movw	r24, r28
    123e:	88 5a       	subi	r24, 0xA8	; 168
    1240:	9f 4f       	sbci	r25, 0xFF	; 255
    1242:	28 ec       	ldi	r18, 0xC8	; 200
    1244:	30 e0       	ldi	r19, 0x00	; 0
    1246:	dc 01       	movw	r26, r24
    1248:	2d 93       	st	X+, r18
    124a:	3c 93       	st	X, r19

0000124c <.LM38>:
    124c:	ce 01       	movw	r24, r28
    124e:	88 5a       	subi	r24, 0xA8	; 168
    1250:	9f 4f       	sbci	r25, 0xFF	; 255
    1252:	fc 01       	movw	r30, r24
    1254:	80 81       	ld	r24, Z
    1256:	91 81       	ldd	r25, Z+1	; 0x01

00001258 <.L1^B3>:
    1258:	01 97       	sbiw	r24, 0x01	; 1
    125a:	f1 f7       	brne	.-4      	; 0x1258 <.L1^B3>
    125c:	9e 01       	movw	r18, r28
    125e:	28 5a       	subi	r18, 0xA8	; 168
    1260:	3f 4f       	sbci	r19, 0xFF	; 255
    1262:	d9 01       	movw	r26, r18
    1264:	8d 93       	st	X+, r24
    1266:	9c 93       	st	X, r25

00001268 <.LM39>:
	...

0000126a <.LM40>:
    126a:	ce 01       	movw	r24, r28
    126c:	8a 5a       	subi	r24, 0xAA	; 170
    126e:	9f 4f       	sbci	r25, 0xFF	; 255
    1270:	9e 01       	movw	r18, r28
    1272:	2a 5a       	subi	r18, 0xAA	; 170
    1274:	3f 4f       	sbci	r19, 0xFF	; 255
    1276:	f9 01       	movw	r30, r18
    1278:	20 81       	ld	r18, Z
    127a:	31 81       	ldd	r19, Z+1	; 0x01
    127c:	21 50       	subi	r18, 0x01	; 1
    127e:	31 09       	sbc	r19, r1
    1280:	dc 01       	movw	r26, r24
    1282:	2d 93       	st	X+, r18
    1284:	3c 93       	st	X, r19

00001286 <.L25>:
    1286:	ce 01       	movw	r24, r28
    1288:	8a 5a       	subi	r24, 0xAA	; 170
    128a:	9f 4f       	sbci	r25, 0xFF	; 255
    128c:	fc 01       	movw	r30, r24
    128e:	80 81       	ld	r24, Z
    1290:	91 81       	ldd	r25, Z+1	; 0x01
    1292:	89 2b       	or	r24, r25
    1294:	99 f6       	brne	.-90     	; 0x123c <.L26>

00001296 <.LM42>:
    1296:	39 c0       	rjmp	.+114    	; 0x130a <.L27>

00001298 <.L81>:
    1298:	8e 01       	movw	r16, r28
    129a:	0a 5a       	subi	r16, 0xAA	; 170
    129c:	1f 4f       	sbci	r17, 0xFF	; 255
    129e:	ce 01       	movw	r24, r28
    12a0:	8e 5a       	subi	r24, 0xAE	; 174
    12a2:	9f 4f       	sbci	r25, 0xFF	; 255
    12a4:	dc 01       	movw	r26, r24
    12a6:	6d 91       	ld	r22, X+
    12a8:	7d 91       	ld	r23, X+
    12aa:	8d 91       	ld	r24, X+
    12ac:	9c 91       	ld	r25, X
    12ae:	0e 94 af 11 	call	0x235e	; 0x235e <__fixunssfsi>
    12b2:	c6 57       	subi	r28, 0x76	; 118
    12b4:	df 4f       	sbci	r29, 0xFF	; 255
    12b6:	68 83       	st	Y, r22
    12b8:	79 83       	std	Y+1, r23	; 0x01
    12ba:	8a 83       	std	Y+2, r24	; 0x02
    12bc:	9b 83       	std	Y+3, r25	; 0x03
    12be:	ca 58       	subi	r28, 0x8A	; 138
    12c0:	d0 40       	sbci	r29, 0x00	; 0
    12c2:	c6 57       	subi	r28, 0x76	; 118
    12c4:	df 4f       	sbci	r29, 0xFF	; 255
    12c6:	28 81       	ld	r18, Y
    12c8:	39 81       	ldd	r19, Y+1	; 0x01
    12ca:	ca 58       	subi	r28, 0x8A	; 138
    12cc:	d0 40       	sbci	r29, 0x00	; 0
    12ce:	f8 01       	movw	r30, r16
    12d0:	31 83       	std	Z+1, r19	; 0x01
    12d2:	20 83       	st	Z, r18

000012d4 <.L22>:
    12d4:	ce 01       	movw	r24, r28
    12d6:	86 5a       	subi	r24, 0xA6	; 166
    12d8:	9f 4f       	sbci	r25, 0xFF	; 255
    12da:	9e 01       	movw	r18, r28
    12dc:	2a 5a       	subi	r18, 0xAA	; 170
    12de:	3f 4f       	sbci	r19, 0xFF	; 255
    12e0:	d9 01       	movw	r26, r18
    12e2:	2d 91       	ld	r18, X+
    12e4:	3c 91       	ld	r19, X
    12e6:	fc 01       	movw	r30, r24
    12e8:	31 83       	std	Z+1, r19	; 0x01
    12ea:	20 83       	st	Z, r18

000012ec <.LM44>:
    12ec:	ce 01       	movw	r24, r28
    12ee:	86 5a       	subi	r24, 0xA6	; 166
    12f0:	9f 4f       	sbci	r25, 0xFF	; 255
    12f2:	dc 01       	movw	r26, r24
    12f4:	8d 91       	ld	r24, X+
    12f6:	9c 91       	ld	r25, X

000012f8 <.L1^B4>:
    12f8:	01 97       	sbiw	r24, 0x01	; 1
    12fa:	f1 f7       	brne	.-4      	; 0x12f8 <.L1^B4>
    12fc:	9e 01       	movw	r18, r28
    12fe:	26 5a       	subi	r18, 0xA6	; 166
    1300:	3f 4f       	sbci	r19, 0xFF	; 255
    1302:	f9 01       	movw	r30, r18
    1304:	91 83       	std	Z+1, r25	; 0x01
    1306:	80 83       	st	Z, r24

00001308 <.LM45>:
	...

0000130a <.L27>:
    130a:	7e c0       	rjmp	.+252    	; 0x1408 <.L28>

0000130c <.L79>:
    130c:	ce 01       	movw	r24, r28
    130e:	8b 5b       	subi	r24, 0xBB	; 187
    1310:	9f 4f       	sbci	r25, 0xFF	; 255
    1312:	20 e0       	ldi	r18, 0x00	; 0
    1314:	30 e0       	ldi	r19, 0x00	; 0
    1316:	4f e7       	ldi	r20, 0x7F	; 127
    1318:	53 e4       	ldi	r21, 0x43	; 67
    131a:	dc 01       	movw	r26, r24
    131c:	6d 91       	ld	r22, X+
    131e:	7d 91       	ld	r23, X+
    1320:	8d 91       	ld	r24, X+
    1322:	9c 91       	ld	r25, X
    1324:	0e 94 90 12 	call	0x2520	; 0x2520 <__gesf2>
    1328:	18 16       	cp	r1, r24
    132a:	d4 f5       	brge	.+116    	; 0x13a0 <.L82>

0000132c <.LM48>:
    132c:	8e 01       	movw	r16, r28
    132e:	04 5a       	subi	r16, 0xA4	; 164
    1330:	1f 4f       	sbci	r17, 0xFF	; 255
    1332:	ce 01       	movw	r24, r28
    1334:	87 5b       	subi	r24, 0xB7	; 183
    1336:	9f 4f       	sbci	r25, 0xFF	; 255
    1338:	fc 01       	movw	r30, r24
    133a:	60 81       	ld	r22, Z
    133c:	71 81       	ldd	r23, Z+1	; 0x01
    133e:	82 81       	ldd	r24, Z+2	; 0x02
    1340:	93 81       	ldd	r25, Z+3	; 0x03
    1342:	0e 94 af 11 	call	0x235e	; 0x235e <__fixunssfsi>
    1346:	c2 57       	subi	r28, 0x72	; 114
    1348:	df 4f       	sbci	r29, 0xFF	; 255
    134a:	68 83       	st	Y, r22
    134c:	79 83       	std	Y+1, r23	; 0x01
    134e:	8a 83       	std	Y+2, r24	; 0x02
    1350:	9b 83       	std	Y+3, r25	; 0x03
    1352:	ce 58       	subi	r28, 0x8E	; 142
    1354:	d0 40       	sbci	r29, 0x00	; 0
    1356:	c2 57       	subi	r28, 0x72	; 114
    1358:	df 4f       	sbci	r29, 0xFF	; 255
    135a:	e8 81       	ld	r30, Y
    135c:	f9 81       	ldd	r31, Y+1	; 0x01
    135e:	ce 58       	subi	r28, 0x8E	; 142
    1360:	d0 40       	sbci	r29, 0x00	; 0
    1362:	d8 01       	movw	r26, r16
    1364:	ed 93       	st	X+, r30
    1366:	fc 93       	st	X, r31
    1368:	ce 01       	movw	r24, r28
    136a:	82 5a       	subi	r24, 0xA2	; 162
    136c:	9f 4f       	sbci	r25, 0xFF	; 255
    136e:	9e 01       	movw	r18, r28
    1370:	24 5a       	subi	r18, 0xA4	; 164
    1372:	3f 4f       	sbci	r19, 0xFF	; 255
    1374:	d9 01       	movw	r26, r18
    1376:	2d 91       	ld	r18, X+
    1378:	3c 91       	ld	r19, X
    137a:	fc 01       	movw	r30, r24
    137c:	31 83       	std	Z+1, r19	; 0x01
    137e:	20 83       	st	Z, r18

00001380 <.LM49>:
    1380:	ce 01       	movw	r24, r28
    1382:	82 5a       	subi	r24, 0xA2	; 162
    1384:	9f 4f       	sbci	r25, 0xFF	; 255
    1386:	dc 01       	movw	r26, r24
    1388:	8d 91       	ld	r24, X+
    138a:	9c 91       	ld	r25, X

0000138c <.L1^B5>:
    138c:	01 97       	sbiw	r24, 0x01	; 1
    138e:	f1 f7       	brne	.-4      	; 0x138c <.L1^B5>
    1390:	9e 01       	movw	r18, r28
    1392:	22 5a       	subi	r18, 0xA2	; 162
    1394:	3f 4f       	sbci	r19, 0xFF	; 255
    1396:	f9 01       	movw	r30, r18
    1398:	91 83       	std	Z+1, r25	; 0x01
    139a:	80 83       	st	Z, r24

0000139c <.LM50>:
	...

0000139e <.LM51>:
    139e:	34 c0       	rjmp	.+104    	; 0x1408 <.L28>

000013a0 <.L82>:
    13a0:	8e 01       	movw	r16, r28
    13a2:	03 5b       	subi	r16, 0xB3	; 179
    13a4:	1f 4f       	sbci	r17, 0xFF	; 255
    13a6:	ce 01       	movw	r24, r28
    13a8:	8b 5b       	subi	r24, 0xBB	; 187
    13aa:	9f 4f       	sbci	r25, 0xFF	; 255
    13ac:	dc 01       	movw	r26, r24
    13ae:	6d 91       	ld	r22, X+
    13b0:	7d 91       	ld	r23, X+
    13b2:	8d 91       	ld	r24, X+
    13b4:	9c 91       	ld	r25, X
    13b6:	0e 94 af 11 	call	0x235e	; 0x235e <__fixunssfsi>
    13ba:	ce 56       	subi	r28, 0x6E	; 110
    13bc:	df 4f       	sbci	r29, 0xFF	; 255
    13be:	68 83       	st	Y, r22
    13c0:	79 83       	std	Y+1, r23	; 0x01
    13c2:	8a 83       	std	Y+2, r24	; 0x02
    13c4:	9b 83       	std	Y+3, r25	; 0x03
    13c6:	c2 59       	subi	r28, 0x92	; 146
    13c8:	d0 40       	sbci	r29, 0x00	; 0
    13ca:	ce 56       	subi	r28, 0x6E	; 110
    13cc:	df 4f       	sbci	r29, 0xFF	; 255
    13ce:	28 81       	ld	r18, Y
    13d0:	c2 59       	subi	r28, 0x92	; 146
    13d2:	d0 40       	sbci	r29, 0x00	; 0
    13d4:	f8 01       	movw	r30, r16
    13d6:	20 83       	st	Z, r18

000013d8 <.L17>:
    13d8:	ce 01       	movw	r24, r28
    13da:	80 5a       	subi	r24, 0xA0	; 160
    13dc:	9f 4f       	sbci	r25, 0xFF	; 255
    13de:	9e 01       	movw	r18, r28
    13e0:	23 5b       	subi	r18, 0xB3	; 179
    13e2:	3f 4f       	sbci	r19, 0xFF	; 255
    13e4:	d9 01       	movw	r26, r18
    13e6:	2c 91       	ld	r18, X
    13e8:	fc 01       	movw	r30, r24
    13ea:	20 83       	st	Z, r18

000013ec <.LM53>:
    13ec:	ce 01       	movw	r24, r28
    13ee:	80 5a       	subi	r24, 0xA0	; 160
    13f0:	9f 4f       	sbci	r25, 0xFF	; 255
    13f2:	dc 01       	movw	r26, r24
    13f4:	8c 91       	ld	r24, X
    13f6:	28 2f       	mov	r18, r24

000013f8 <.L1^B6>:
    13f8:	2a 95       	dec	r18
    13fa:	f1 f7       	brne	.-4      	; 0x13f8 <.L1^B6>
    13fc:	ce 01       	movw	r24, r28
    13fe:	80 5a       	subi	r24, 0xA0	; 160
    1400:	9f 4f       	sbci	r25, 0xFF	; 255
    1402:	fc 01       	movw	r30, r24
    1404:	20 83       	st	Z, r18

00001406 <.LM54>:
	...

00001408 <.L28>:
    1408:	41 e0       	ldi	r20, 0x01	; 1
    140a:	61 e0       	ldi	r22, 0x01	; 1
    140c:	81 e0       	ldi	r24, 0x01	; 1
    140e:	0e 94 f4 03 	call	0x7e8	; 0x7e8 <GPIO_writePin>
    1412:	80 e0       	ldi	r24, 0x00	; 0
    1414:	90 e0       	ldi	r25, 0x00	; 0
    1416:	a0 e8       	ldi	r26, 0x80	; 128
    1418:	bf e3       	ldi	r27, 0x3F	; 63
    141a:	89 a3       	std	Y+33, r24	; 0x21
    141c:	9a a3       	std	Y+34, r25	; 0x22
    141e:	ab a3       	std	Y+35, r26	; 0x23
    1420:	bc a3       	std	Y+36, r27	; 0x24

00001422 <.LM56>:
    1422:	2b ea       	ldi	r18, 0xAB	; 171
    1424:	3a ea       	ldi	r19, 0xAA	; 170
    1426:	4a e2       	ldi	r20, 0x2A	; 42
    1428:	50 e4       	ldi	r21, 0x40	; 64
    142a:	69 a1       	ldd	r22, Y+33	; 0x21
    142c:	7a a1       	ldd	r23, Y+34	; 0x22
    142e:	8b a1       	ldd	r24, Y+35	; 0x23
    1430:	9c a1       	ldd	r25, Y+36	; 0x24
    1432:	0e 94 95 12 	call	0x252a	; 0x252a <__mulsf3>
    1436:	ca 56       	subi	r28, 0x6A	; 106
    1438:	df 4f       	sbci	r29, 0xFF	; 255
    143a:	68 83       	st	Y, r22
    143c:	79 83       	std	Y+1, r23	; 0x01
    143e:	8a 83       	std	Y+2, r24	; 0x02
    1440:	9b 83       	std	Y+3, r25	; 0x03
    1442:	c6 59       	subi	r28, 0x96	; 150
    1444:	d0 40       	sbci	r29, 0x00	; 0
    1446:	ca 56       	subi	r28, 0x6A	; 106
    1448:	df 4f       	sbci	r29, 0xFF	; 255
    144a:	28 81       	ld	r18, Y
    144c:	39 81       	ldd	r19, Y+1	; 0x01
    144e:	4a 81       	ldd	r20, Y+2	; 0x02
    1450:	5b 81       	ldd	r21, Y+3	; 0x03
    1452:	c6 59       	subi	r28, 0x96	; 150
    1454:	d0 40       	sbci	r29, 0x00	; 0
    1456:	2d a3       	std	Y+37, r18	; 0x25
    1458:	3e a3       	std	Y+38, r19	; 0x26
    145a:	4f a3       	std	Y+39, r20	; 0x27
    145c:	58 a7       	std	Y+40, r21	; 0x28

0000145e <.LM57>:
    145e:	89 a1       	ldd	r24, Y+33	; 0x21
    1460:	9a a1       	ldd	r25, Y+34	; 0x22
    1462:	ab a1       	ldd	r26, Y+35	; 0x23
    1464:	bc a1       	ldd	r27, Y+36	; 0x24
    1466:	c6 56       	subi	r28, 0x66	; 102
    1468:	df 4f       	sbci	r29, 0xFF	; 255
    146a:	88 83       	st	Y, r24
    146c:	99 83       	std	Y+1, r25	; 0x01
    146e:	aa 83       	std	Y+2, r26	; 0x02
    1470:	bb 83       	std	Y+3, r27	; 0x03
    1472:	ca 59       	subi	r28, 0x9A	; 154
    1474:	d0 40       	sbci	r29, 0x00	; 0
    1476:	c6 56       	subi	r28, 0x66	; 102
    1478:	df 4f       	sbci	r29, 0xFF	; 255
    147a:	28 81       	ld	r18, Y
    147c:	39 81       	ldd	r19, Y+1	; 0x01
    147e:	4a 81       	ldd	r20, Y+2	; 0x02
    1480:	5b 81       	ldd	r21, Y+3	; 0x03
    1482:	ca 59       	subi	r28, 0x9A	; 154
    1484:	d0 40       	sbci	r29, 0x00	; 0
    1486:	c6 56       	subi	r28, 0x66	; 102
    1488:	df 4f       	sbci	r29, 0xFF	; 255
    148a:	68 81       	ld	r22, Y
    148c:	79 81       	ldd	r23, Y+1	; 0x01
    148e:	8a 81       	ldd	r24, Y+2	; 0x02
    1490:	9b 81       	ldd	r25, Y+3	; 0x03
    1492:	ca 59       	subi	r28, 0x9A	; 154
    1494:	d0 40       	sbci	r29, 0x00	; 0
    1496:	0e 94 cc 10 	call	0x2198	; 0x2198 <__addsf3>
    149a:	c2 56       	subi	r28, 0x62	; 98
    149c:	df 4f       	sbci	r29, 0xFF	; 255
    149e:	68 83       	st	Y, r22
    14a0:	79 83       	std	Y+1, r23	; 0x01
    14a2:	8a 83       	std	Y+2, r24	; 0x02
    14a4:	9b 83       	std	Y+3, r25	; 0x03
    14a6:	ce 59       	subi	r28, 0x9E	; 158
    14a8:	d0 40       	sbci	r29, 0x00	; 0
    14aa:	c2 56       	subi	r28, 0x62	; 98
    14ac:	df 4f       	sbci	r29, 0xFF	; 255
    14ae:	28 81       	ld	r18, Y
    14b0:	39 81       	ldd	r19, Y+1	; 0x01
    14b2:	4a 81       	ldd	r20, Y+2	; 0x02
    14b4:	5b 81       	ldd	r21, Y+3	; 0x03
    14b6:	ce 59       	subi	r28, 0x9E	; 158
    14b8:	d0 40       	sbci	r29, 0x00	; 0
    14ba:	29 a7       	std	Y+41, r18	; 0x29
    14bc:	3a a7       	std	Y+42, r19	; 0x2a
    14be:	4b a7       	std	Y+43, r20	; 0x2b
    14c0:	5c a7       	std	Y+44, r21	; 0x2c

000014c2 <.LM58>:
    14c2:	20 e0       	ldi	r18, 0x00	; 0
    14c4:	30 e0       	ldi	r19, 0x00	; 0
    14c6:	40 e8       	ldi	r20, 0x80	; 128
    14c8:	5f e3       	ldi	r21, 0x3F	; 63
    14ca:	6d a1       	ldd	r22, Y+37	; 0x25
    14cc:	7e a1       	ldd	r23, Y+38	; 0x26
    14ce:	8f a1       	ldd	r24, Y+39	; 0x27
    14d0:	98 a5       	ldd	r25, Y+40	; 0x28
    14d2:	0e 94 38 11 	call	0x2270	; 0x2270 <__cmpsf2>
    14d6:	88 23       	and	r24, r24
    14d8:	1c f4       	brge	.+6      	; 0x14e0 <.L83>

000014da <.LM59>:
    14da:	81 e0       	ldi	r24, 0x01	; 1
    14dc:	8d a7       	std	Y+45, r24	; 0x2d
    14de:	19 c1       	rjmp	.+562    	; 0x1712 <.L33>

000014e0 <.L83>:
    14e0:	20 e0       	ldi	r18, 0x00	; 0
    14e2:	3f ef       	ldi	r19, 0xFF	; 255
    14e4:	4f e7       	ldi	r20, 0x7F	; 127
    14e6:	57 e4       	ldi	r21, 0x47	; 71
    14e8:	69 a5       	ldd	r22, Y+41	; 0x29
    14ea:	7a a5       	ldd	r23, Y+42	; 0x2a
    14ec:	8b a5       	ldd	r24, Y+43	; 0x2b
    14ee:	9c a5       	ldd	r25, Y+44	; 0x2c
    14f0:	0e 94 90 12 	call	0x2520	; 0x2520 <__gesf2>
    14f4:	18 16       	cp	r1, r24
    14f6:	0c f0       	brlt	.+2      	; 0x14fa <.LM61>

000014f8 <L0^A>:
    14f8:	ca c0       	rjmp	.+404    	; 0x168e <.L84>

000014fa <.LM61>:
    14fa:	20 e0       	ldi	r18, 0x00	; 0
    14fc:	30 e0       	ldi	r19, 0x00	; 0
    14fe:	4a e7       	ldi	r20, 0x7A	; 122
    1500:	54 e4       	ldi	r21, 0x44	; 68
    1502:	69 a1       	ldd	r22, Y+33	; 0x21
    1504:	7a a1       	ldd	r23, Y+34	; 0x22
    1506:	8b a1       	ldd	r24, Y+35	; 0x23
    1508:	9c a1       	ldd	r25, Y+36	; 0x24
    150a:	0e 94 3d 11 	call	0x227a	; 0x227a <__divsf3>
    150e:	ce 55       	subi	r28, 0x5E	; 94
    1510:	df 4f       	sbci	r29, 0xFF	; 255
    1512:	68 83       	st	Y, r22
    1514:	79 83       	std	Y+1, r23	; 0x01
    1516:	8a 83       	std	Y+2, r24	; 0x02
    1518:	9b 83       	std	Y+3, r25	; 0x03
    151a:	c2 5a       	subi	r28, 0xA2	; 162
    151c:	d0 40       	sbci	r29, 0x00	; 0
    151e:	ce 55       	subi	r28, 0x5E	; 94
    1520:	df 4f       	sbci	r29, 0xFF	; 255
    1522:	88 81       	ld	r24, Y
    1524:	99 81       	ldd	r25, Y+1	; 0x01
    1526:	aa 81       	ldd	r26, Y+2	; 0x02
    1528:	bb 81       	ldd	r27, Y+3	; 0x03
    152a:	c2 5a       	subi	r28, 0xA2	; 162
    152c:	d0 40       	sbci	r29, 0x00	; 0
    152e:	8e a7       	std	Y+46, r24	; 0x2e
    1530:	9f a7       	std	Y+47, r25	; 0x2f
    1532:	a8 ab       	std	Y+48, r26	; 0x30
    1534:	b9 ab       	std	Y+49, r27	; 0x31

00001536 <.LM62>:
    1536:	20 e0       	ldi	r18, 0x00	; 0
    1538:	30 e0       	ldi	r19, 0x00	; 0
    153a:	4a ef       	ldi	r20, 0xFA	; 250
    153c:	54 e4       	ldi	r21, 0x44	; 68
    153e:	6e a5       	ldd	r22, Y+46	; 0x2e
    1540:	7f a5       	ldd	r23, Y+47	; 0x2f
    1542:	88 a9       	ldd	r24, Y+48	; 0x30
    1544:	99 a9       	ldd	r25, Y+49	; 0x31
    1546:	0e 94 95 12 	call	0x252a	; 0x252a <__mulsf3>
    154a:	ca 55       	subi	r28, 0x5A	; 90
    154c:	df 4f       	sbci	r29, 0xFF	; 255
    154e:	68 83       	st	Y, r22
    1550:	79 83       	std	Y+1, r23	; 0x01
    1552:	8a 83       	std	Y+2, r24	; 0x02
    1554:	9b 83       	std	Y+3, r25	; 0x03
    1556:	c6 5a       	subi	r28, 0xA6	; 166
    1558:	d0 40       	sbci	r29, 0x00	; 0
    155a:	ca 55       	subi	r28, 0x5A	; 90
    155c:	df 4f       	sbci	r29, 0xFF	; 255
    155e:	88 81       	ld	r24, Y
    1560:	99 81       	ldd	r25, Y+1	; 0x01
    1562:	aa 81       	ldd	r26, Y+2	; 0x02
    1564:	bb 81       	ldd	r27, Y+3	; 0x03
    1566:	c6 5a       	subi	r28, 0xA6	; 166
    1568:	d0 40       	sbci	r29, 0x00	; 0
    156a:	8a ab       	std	Y+50, r24	; 0x32
    156c:	9b ab       	std	Y+51, r25	; 0x33
    156e:	ac ab       	std	Y+52, r26	; 0x34
    1570:	bd ab       	std	Y+53, r27	; 0x35

00001572 <.LM63>:
    1572:	20 e0       	ldi	r18, 0x00	; 0
    1574:	30 e0       	ldi	r19, 0x00	; 0
    1576:	40 e8       	ldi	r20, 0x80	; 128
    1578:	5f e3       	ldi	r21, 0x3F	; 63
    157a:	6a a9       	ldd	r22, Y+50	; 0x32
    157c:	7b a9       	ldd	r23, Y+51	; 0x33
    157e:	8c a9       	ldd	r24, Y+52	; 0x34
    1580:	9d a9       	ldd	r25, Y+53	; 0x35
    1582:	0e 94 38 11 	call	0x2270	; 0x2270 <__cmpsf2>
    1586:	88 23       	and	r24, r24
    1588:	2c f4       	brge	.+10     	; 0x1594 <.L85>

0000158a <.LM64>:
    158a:	81 e0       	ldi	r24, 0x01	; 1
    158c:	90 e0       	ldi	r25, 0x00	; 0
    158e:	9f ab       	std	Y+55, r25	; 0x37
    1590:	8e ab       	std	Y+54, r24	; 0x36
    1592:	71 c0       	rjmp	.+226    	; 0x1676 <.L38>

00001594 <.L85>:
    1594:	20 e0       	ldi	r18, 0x00	; 0
    1596:	3f ef       	ldi	r19, 0xFF	; 255
    1598:	4f e7       	ldi	r20, 0x7F	; 127
    159a:	57 e4       	ldi	r21, 0x47	; 71
    159c:	6a a9       	ldd	r22, Y+50	; 0x32
    159e:	7b a9       	ldd	r23, Y+51	; 0x33
    15a0:	8c a9       	ldd	r24, Y+52	; 0x34
    15a2:	9d a9       	ldd	r25, Y+53	; 0x35
    15a4:	0e 94 90 12 	call	0x2520	; 0x2520 <__gesf2>
    15a8:	18 16       	cp	r1, r24
    15aa:	0c f0       	brlt	.+2      	; 0x15ae <.LM66>

000015ac <L0^A>:
    15ac:	4e c0       	rjmp	.+156    	; 0x164a <.L86>

000015ae <.LM66>:
    15ae:	20 e0       	ldi	r18, 0x00	; 0
    15b0:	30 e0       	ldi	r19, 0x00	; 0
    15b2:	40 e2       	ldi	r20, 0x20	; 32
    15b4:	51 e4       	ldi	r21, 0x41	; 65
    15b6:	6e a5       	ldd	r22, Y+46	; 0x2e
    15b8:	7f a5       	ldd	r23, Y+47	; 0x2f
    15ba:	88 a9       	ldd	r24, Y+48	; 0x30
    15bc:	99 a9       	ldd	r25, Y+49	; 0x31
    15be:	0e 94 95 12 	call	0x252a	; 0x252a <__mulsf3>
    15c2:	c6 55       	subi	r28, 0x56	; 86
    15c4:	df 4f       	sbci	r29, 0xFF	; 255
    15c6:	68 83       	st	Y, r22
    15c8:	79 83       	std	Y+1, r23	; 0x01
    15ca:	8a 83       	std	Y+2, r24	; 0x02
    15cc:	9b 83       	std	Y+3, r25	; 0x03
    15ce:	ca 5a       	subi	r28, 0xAA	; 170
    15d0:	d0 40       	sbci	r29, 0x00	; 0
    15d2:	c6 55       	subi	r28, 0x56	; 86
    15d4:	df 4f       	sbci	r29, 0xFF	; 255
    15d6:	28 81       	ld	r18, Y
    15d8:	39 81       	ldd	r19, Y+1	; 0x01
    15da:	4a 81       	ldd	r20, Y+2	; 0x02
    15dc:	5b 81       	ldd	r21, Y+3	; 0x03
    15de:	ca 5a       	subi	r28, 0xAA	; 170
    15e0:	d0 40       	sbci	r29, 0x00	; 0
    15e2:	aa 96       	adiw	r28, 0x2a	; 42
    15e4:	2c af       	std	Y+60, r18	; 0x3c
    15e6:	3d af       	std	Y+61, r19	; 0x3d
    15e8:	4e af       	std	Y+62, r20	; 0x3e
    15ea:	5f af       	std	Y+63, r21	; 0x3f
    15ec:	aa 97       	sbiw	r28, 0x2a	; 42

000015ee <.LM67>:
    15ee:	aa 96       	adiw	r28, 0x2a	; 42
    15f0:	6c ad       	ldd	r22, Y+60	; 0x3c
    15f2:	7d ad       	ldd	r23, Y+61	; 0x3d
    15f4:	8e ad       	ldd	r24, Y+62	; 0x3e
    15f6:	9f ad       	ldd	r25, Y+63	; 0x3f
    15f8:	aa 97       	sbiw	r28, 0x2a	; 42
    15fa:	0e 94 af 11 	call	0x235e	; 0x235e <__fixunssfsi>
    15fe:	c2 55       	subi	r28, 0x52	; 82
    1600:	df 4f       	sbci	r29, 0xFF	; 255
    1602:	68 83       	st	Y, r22
    1604:	79 83       	std	Y+1, r23	; 0x01
    1606:	8a 83       	std	Y+2, r24	; 0x02
    1608:	9b 83       	std	Y+3, r25	; 0x03
    160a:	ce 5a       	subi	r28, 0xAE	; 174
    160c:	d0 40       	sbci	r29, 0x00	; 0
    160e:	c2 55       	subi	r28, 0x52	; 82
    1610:	df 4f       	sbci	r29, 0xFF	; 255
    1612:	48 81       	ld	r20, Y
    1614:	59 81       	ldd	r21, Y+1	; 0x01
    1616:	ce 5a       	subi	r28, 0xAE	; 174
    1618:	d0 40       	sbci	r29, 0x00	; 0
    161a:	5f ab       	std	Y+55, r21	; 0x37
    161c:	4e ab       	std	Y+54, r20	; 0x36

0000161e <.LM68>:
    161e:	10 c0       	rjmp	.+32     	; 0x1640 <.L41>

00001620 <.L42>:
    1620:	88 ec       	ldi	r24, 0xC8	; 200
    1622:	90 e0       	ldi	r25, 0x00	; 0
    1624:	99 af       	std	Y+57, r25	; 0x39
    1626:	88 af       	std	Y+56, r24	; 0x38

00001628 <.LM69>:
    1628:	88 ad       	ldd	r24, Y+56	; 0x38
    162a:	99 ad       	ldd	r25, Y+57	; 0x39

0000162c <.L1^B7>:
    162c:	01 97       	sbiw	r24, 0x01	; 1
    162e:	f1 f7       	brne	.-4      	; 0x162c <.L1^B7>
    1630:	99 af       	std	Y+57, r25	; 0x39
    1632:	88 af       	std	Y+56, r24	; 0x38

00001634 <.LM70>:
	...

00001636 <.LM71>:
    1636:	8e a9       	ldd	r24, Y+54	; 0x36
    1638:	9f a9       	ldd	r25, Y+55	; 0x37
    163a:	01 97       	sbiw	r24, 0x01	; 1
    163c:	9f ab       	std	Y+55, r25	; 0x37
    163e:	8e ab       	std	Y+54, r24	; 0x36

00001640 <.L41>:
    1640:	8e a9       	ldd	r24, Y+54	; 0x36
    1642:	9f a9       	ldd	r25, Y+55	; 0x37
    1644:	89 2b       	or	r24, r25
    1646:	61 f7       	brne	.-40     	; 0x1620 <.L42>

00001648 <.LM73>:
    1648:	21 c0       	rjmp	.+66     	; 0x168c <.L43>

0000164a <.L86>:
    164a:	6a a9       	ldd	r22, Y+50	; 0x32
    164c:	7b a9       	ldd	r23, Y+51	; 0x33
    164e:	8c a9       	ldd	r24, Y+52	; 0x34
    1650:	9d a9       	ldd	r25, Y+53	; 0x35
    1652:	0e 94 af 11 	call	0x235e	; 0x235e <__fixunssfsi>
    1656:	ce 54       	subi	r28, 0x4E	; 78
    1658:	df 4f       	sbci	r29, 0xFF	; 255
    165a:	68 83       	st	Y, r22
    165c:	79 83       	std	Y+1, r23	; 0x01
    165e:	8a 83       	std	Y+2, r24	; 0x02
    1660:	9b 83       	std	Y+3, r25	; 0x03
    1662:	c2 5b       	subi	r28, 0xB2	; 178
    1664:	d0 40       	sbci	r29, 0x00	; 0
    1666:	ce 54       	subi	r28, 0x4E	; 78
    1668:	df 4f       	sbci	r29, 0xFF	; 255
    166a:	88 81       	ld	r24, Y
    166c:	99 81       	ldd	r25, Y+1	; 0x01
    166e:	c2 5b       	subi	r28, 0xB2	; 178
    1670:	d0 40       	sbci	r29, 0x00	; 0
    1672:	9f ab       	std	Y+55, r25	; 0x37
    1674:	8e ab       	std	Y+54, r24	; 0x36

00001676 <.L38>:
    1676:	8e a9       	ldd	r24, Y+54	; 0x36
    1678:	9f a9       	ldd	r25, Y+55	; 0x37
    167a:	9b af       	std	Y+59, r25	; 0x3b
    167c:	8a af       	std	Y+58, r24	; 0x3a

0000167e <.LM75>:
    167e:	8a ad       	ldd	r24, Y+58	; 0x3a
    1680:	9b ad       	ldd	r25, Y+59	; 0x3b

00001682 <.L1^B8>:
    1682:	01 97       	sbiw	r24, 0x01	; 1
    1684:	f1 f7       	brne	.-4      	; 0x1682 <.L1^B8>
    1686:	9b af       	std	Y+59, r25	; 0x3b
    1688:	8a af       	std	Y+58, r24	; 0x3a

0000168a <.LM76>:
	...

0000168c <.L43>:
    168c:	56 c0       	rjmp	.+172    	; 0x173a <.L44>

0000168e <.L84>:
    168e:	20 e0       	ldi	r18, 0x00	; 0
    1690:	30 e0       	ldi	r19, 0x00	; 0
    1692:	4f e7       	ldi	r20, 0x7F	; 127
    1694:	53 e4       	ldi	r21, 0x43	; 67
    1696:	6d a1       	ldd	r22, Y+37	; 0x25
    1698:	7e a1       	ldd	r23, Y+38	; 0x26
    169a:	8f a1       	ldd	r24, Y+39	; 0x27
    169c:	98 a5       	ldd	r25, Y+40	; 0x28
    169e:	0e 94 90 12 	call	0x2520	; 0x2520 <__gesf2>
    16a2:	18 16       	cp	r1, r24
    16a4:	14 f5       	brge	.+68     	; 0x16ea <.L87>

000016a6 <.LM79>:
    16a6:	69 a5       	ldd	r22, Y+41	; 0x29
    16a8:	7a a5       	ldd	r23, Y+42	; 0x2a
    16aa:	8b a5       	ldd	r24, Y+43	; 0x2b
    16ac:	9c a5       	ldd	r25, Y+44	; 0x2c
    16ae:	0e 94 af 11 	call	0x235e	; 0x235e <__fixunssfsi>
    16b2:	ca 54       	subi	r28, 0x4A	; 74
    16b4:	df 4f       	sbci	r29, 0xFF	; 255
    16b6:	68 83       	st	Y, r22
    16b8:	79 83       	std	Y+1, r23	; 0x01
    16ba:	8a 83       	std	Y+2, r24	; 0x02
    16bc:	9b 83       	std	Y+3, r25	; 0x03
    16be:	c6 5b       	subi	r28, 0xB6	; 182
    16c0:	d0 40       	sbci	r29, 0x00	; 0
    16c2:	ca 54       	subi	r28, 0x4A	; 74
    16c4:	df 4f       	sbci	r29, 0xFF	; 255
    16c6:	a8 81       	ld	r26, Y
    16c8:	b9 81       	ldd	r27, Y+1	; 0x01
    16ca:	c6 5b       	subi	r28, 0xB6	; 182
    16cc:	d0 40       	sbci	r29, 0x00	; 0
    16ce:	bd af       	std	Y+61, r27	; 0x3d
    16d0:	ac af       	std	Y+60, r26	; 0x3c
    16d2:	8c ad       	ldd	r24, Y+60	; 0x3c
    16d4:	9d ad       	ldd	r25, Y+61	; 0x3d
    16d6:	9f af       	std	Y+63, r25	; 0x3f
    16d8:	8e af       	std	Y+62, r24	; 0x3e

000016da <.LM80>:
    16da:	8e ad       	ldd	r24, Y+62	; 0x3e
    16dc:	9f ad       	ldd	r25, Y+63	; 0x3f

000016de <.L1^B9>:
    16de:	01 97       	sbiw	r24, 0x01	; 1
    16e0:	f1 f7       	brne	.-4      	; 0x16de <.L1^B9>
    16e2:	9f af       	std	Y+63, r25	; 0x3f
    16e4:	8e af       	std	Y+62, r24	; 0x3e

000016e6 <.LM81>:
	...

000016e8 <.LM82>:
    16e8:	28 c0       	rjmp	.+80     	; 0x173a <.L44>

000016ea <.L87>:
    16ea:	6d a1       	ldd	r22, Y+37	; 0x25
    16ec:	7e a1       	ldd	r23, Y+38	; 0x26
    16ee:	8f a1       	ldd	r24, Y+39	; 0x27
    16f0:	98 a5       	ldd	r25, Y+40	; 0x28
    16f2:	0e 94 af 11 	call	0x235e	; 0x235e <__fixunssfsi>
    16f6:	c6 54       	subi	r28, 0x46	; 70
    16f8:	df 4f       	sbci	r29, 0xFF	; 255
    16fa:	68 83       	st	Y, r22
    16fc:	79 83       	std	Y+1, r23	; 0x01
    16fe:	8a 83       	std	Y+2, r24	; 0x02
    1700:	9b 83       	std	Y+3, r25	; 0x03
    1702:	ca 5b       	subi	r28, 0xBA	; 186
    1704:	d0 40       	sbci	r29, 0x00	; 0
    1706:	c6 54       	subi	r28, 0x46	; 70
    1708:	df 4f       	sbci	r29, 0xFF	; 255
    170a:	b8 81       	ld	r27, Y
    170c:	ca 5b       	subi	r28, 0xBA	; 186
    170e:	d0 40       	sbci	r29, 0x00	; 0
    1710:	bd a7       	std	Y+45, r27	; 0x2d

00001712 <.L33>:
    1712:	2d a5       	ldd	r18, Y+45	; 0x2d
    1714:	ce 01       	movw	r24, r28
    1716:	80 5c       	subi	r24, 0xC0	; 192
    1718:	9f 4f       	sbci	r25, 0xFF	; 255
    171a:	fc 01       	movw	r30, r24
    171c:	20 83       	st	Z, r18

0000171e <.LM84>:
    171e:	ce 01       	movw	r24, r28
    1720:	80 5c       	subi	r24, 0xC0	; 192
    1722:	9f 4f       	sbci	r25, 0xFF	; 255
    1724:	dc 01       	movw	r26, r24
    1726:	8c 91       	ld	r24, X
    1728:	28 2f       	mov	r18, r24

0000172a <.L1^B10>:
    172a:	2a 95       	dec	r18
    172c:	f1 f7       	brne	.-4      	; 0x172a <.L1^B10>
    172e:	ce 01       	movw	r24, r28
    1730:	80 5c       	subi	r24, 0xC0	; 192
    1732:	9f 4f       	sbci	r25, 0xFF	; 255
    1734:	fc 01       	movw	r30, r24
    1736:	20 83       	st	Z, r18

00001738 <.LM85>:
	...

0000173a <.L44>:
    173a:	ce 01       	movw	r24, r28
    173c:	8f 59       	subi	r24, 0x9F	; 159
    173e:	9f 4f       	sbci	r25, 0xFF	; 255
    1740:	dc 01       	movw	r26, r24
    1742:	6c 91       	ld	r22, X
    1744:	80 e0       	ldi	r24, 0x00	; 0
    1746:	0e 94 ad 05 	call	0xb5a	; 0xb5a <GPIO_writePort>
    174a:	80 e0       	ldi	r24, 0x00	; 0
    174c:	90 e0       	ldi	r25, 0x00	; 0
    174e:	a0 e8       	ldi	r26, 0x80	; 128
    1750:	bf e3       	ldi	r27, 0x3F	; 63
    1752:	89 83       	std	Y+1, r24	; 0x01
    1754:	9a 83       	std	Y+2, r25	; 0x02
    1756:	ab 83       	std	Y+3, r26	; 0x03
    1758:	bc 83       	std	Y+4, r27	; 0x04

0000175a <.LM87>:
    175a:	2b ea       	ldi	r18, 0xAB	; 171
    175c:	3a ea       	ldi	r19, 0xAA	; 170
    175e:	4a e2       	ldi	r20, 0x2A	; 42
    1760:	50 e4       	ldi	r21, 0x40	; 64
    1762:	69 81       	ldd	r22, Y+1	; 0x01
    1764:	7a 81       	ldd	r23, Y+2	; 0x02
    1766:	8b 81       	ldd	r24, Y+3	; 0x03
    1768:	9c 81       	ldd	r25, Y+4	; 0x04
    176a:	0e 94 95 12 	call	0x252a	; 0x252a <__mulsf3>
    176e:	c2 54       	subi	r28, 0x42	; 66
    1770:	df 4f       	sbci	r29, 0xFF	; 255
    1772:	68 83       	st	Y, r22
    1774:	79 83       	std	Y+1, r23	; 0x01
    1776:	8a 83       	std	Y+2, r24	; 0x02
    1778:	9b 83       	std	Y+3, r25	; 0x03
    177a:	ce 5b       	subi	r28, 0xBE	; 190
    177c:	d0 40       	sbci	r29, 0x00	; 0
    177e:	c2 54       	subi	r28, 0x42	; 66
    1780:	df 4f       	sbci	r29, 0xFF	; 255
    1782:	28 81       	ld	r18, Y
    1784:	39 81       	ldd	r19, Y+1	; 0x01
    1786:	4a 81       	ldd	r20, Y+2	; 0x02
    1788:	5b 81       	ldd	r21, Y+3	; 0x03
    178a:	ce 5b       	subi	r28, 0xBE	; 190
    178c:	d0 40       	sbci	r29, 0x00	; 0
    178e:	2d 83       	std	Y+5, r18	; 0x05
    1790:	3e 83       	std	Y+6, r19	; 0x06
    1792:	4f 83       	std	Y+7, r20	; 0x07
    1794:	58 87       	std	Y+8, r21	; 0x08

00001796 <.LM88>:
    1796:	89 81       	ldd	r24, Y+1	; 0x01
    1798:	9a 81       	ldd	r25, Y+2	; 0x02
    179a:	ab 81       	ldd	r26, Y+3	; 0x03
    179c:	bc 81       	ldd	r27, Y+4	; 0x04
    179e:	ce 53       	subi	r28, 0x3E	; 62
    17a0:	df 4f       	sbci	r29, 0xFF	; 255
    17a2:	88 83       	st	Y, r24
    17a4:	99 83       	std	Y+1, r25	; 0x01
    17a6:	aa 83       	std	Y+2, r26	; 0x02
    17a8:	bb 83       	std	Y+3, r27	; 0x03
    17aa:	c2 5c       	subi	r28, 0xC2	; 194
    17ac:	d0 40       	sbci	r29, 0x00	; 0
    17ae:	ce 53       	subi	r28, 0x3E	; 62
    17b0:	df 4f       	sbci	r29, 0xFF	; 255
    17b2:	28 81       	ld	r18, Y
    17b4:	39 81       	ldd	r19, Y+1	; 0x01
    17b6:	4a 81       	ldd	r20, Y+2	; 0x02
    17b8:	5b 81       	ldd	r21, Y+3	; 0x03
    17ba:	c2 5c       	subi	r28, 0xC2	; 194
    17bc:	d0 40       	sbci	r29, 0x00	; 0
    17be:	ce 53       	subi	r28, 0x3E	; 62
    17c0:	df 4f       	sbci	r29, 0xFF	; 255
    17c2:	68 81       	ld	r22, Y
    17c4:	79 81       	ldd	r23, Y+1	; 0x01
    17c6:	8a 81       	ldd	r24, Y+2	; 0x02
    17c8:	9b 81       	ldd	r25, Y+3	; 0x03
    17ca:	c2 5c       	subi	r28, 0xC2	; 194
    17cc:	d0 40       	sbci	r29, 0x00	; 0
    17ce:	0e 94 cc 10 	call	0x2198	; 0x2198 <__addsf3>
    17d2:	ca 53       	subi	r28, 0x3A	; 58
    17d4:	df 4f       	sbci	r29, 0xFF	; 255
    17d6:	68 83       	st	Y, r22
    17d8:	79 83       	std	Y+1, r23	; 0x01
    17da:	8a 83       	std	Y+2, r24	; 0x02
    17dc:	9b 83       	std	Y+3, r25	; 0x03
    17de:	c6 5c       	subi	r28, 0xC6	; 198
    17e0:	d0 40       	sbci	r29, 0x00	; 0
    17e2:	ca 53       	subi	r28, 0x3A	; 58
    17e4:	df 4f       	sbci	r29, 0xFF	; 255
    17e6:	28 81       	ld	r18, Y
    17e8:	39 81       	ldd	r19, Y+1	; 0x01
    17ea:	4a 81       	ldd	r20, Y+2	; 0x02
    17ec:	5b 81       	ldd	r21, Y+3	; 0x03
    17ee:	c6 5c       	subi	r28, 0xC6	; 198
    17f0:	d0 40       	sbci	r29, 0x00	; 0
    17f2:	29 87       	std	Y+9, r18	; 0x09
    17f4:	3a 87       	std	Y+10, r19	; 0x0a
    17f6:	4b 87       	std	Y+11, r20	; 0x0b
    17f8:	5c 87       	std	Y+12, r21	; 0x0c

000017fa <.LM89>:
    17fa:	20 e0       	ldi	r18, 0x00	; 0
    17fc:	30 e0       	ldi	r19, 0x00	; 0
    17fe:	40 e8       	ldi	r20, 0x80	; 128
    1800:	5f e3       	ldi	r21, 0x3F	; 63
    1802:	6d 81       	ldd	r22, Y+5	; 0x05
    1804:	7e 81       	ldd	r23, Y+6	; 0x06
    1806:	8f 81       	ldd	r24, Y+7	; 0x07
    1808:	98 85       	ldd	r25, Y+8	; 0x08
    180a:	0e 94 38 11 	call	0x2270	; 0x2270 <__cmpsf2>
    180e:	88 23       	and	r24, r24
    1810:	1c f4       	brge	.+6      	; 0x1818 <.L88>

00001812 <.LM90>:
    1812:	81 e0       	ldi	r24, 0x01	; 1
    1814:	8d 87       	std	Y+13, r24	; 0x0d
    1816:	19 c1       	rjmp	.+562    	; 0x1a4a <.L49>

00001818 <.L88>:
    1818:	20 e0       	ldi	r18, 0x00	; 0
    181a:	3f ef       	ldi	r19, 0xFF	; 255
    181c:	4f e7       	ldi	r20, 0x7F	; 127
    181e:	57 e4       	ldi	r21, 0x47	; 71
    1820:	69 85       	ldd	r22, Y+9	; 0x09
    1822:	7a 85       	ldd	r23, Y+10	; 0x0a
    1824:	8b 85       	ldd	r24, Y+11	; 0x0b
    1826:	9c 85       	ldd	r25, Y+12	; 0x0c
    1828:	0e 94 90 12 	call	0x2520	; 0x2520 <__gesf2>
    182c:	18 16       	cp	r1, r24
    182e:	0c f0       	brlt	.+2      	; 0x1832 <.LM92>

00001830 <L0^A>:
    1830:	ca c0       	rjmp	.+404    	; 0x19c6 <.L89>

00001832 <.LM92>:
    1832:	20 e0       	ldi	r18, 0x00	; 0
    1834:	30 e0       	ldi	r19, 0x00	; 0
    1836:	4a e7       	ldi	r20, 0x7A	; 122
    1838:	54 e4       	ldi	r21, 0x44	; 68
    183a:	69 81       	ldd	r22, Y+1	; 0x01
    183c:	7a 81       	ldd	r23, Y+2	; 0x02
    183e:	8b 81       	ldd	r24, Y+3	; 0x03
    1840:	9c 81       	ldd	r25, Y+4	; 0x04
    1842:	0e 94 3d 11 	call	0x227a	; 0x227a <__divsf3>
    1846:	c6 53       	subi	r28, 0x36	; 54
    1848:	df 4f       	sbci	r29, 0xFF	; 255
    184a:	68 83       	st	Y, r22
    184c:	79 83       	std	Y+1, r23	; 0x01
    184e:	8a 83       	std	Y+2, r24	; 0x02
    1850:	9b 83       	std	Y+3, r25	; 0x03
    1852:	ca 5c       	subi	r28, 0xCA	; 202
    1854:	d0 40       	sbci	r29, 0x00	; 0
    1856:	c6 53       	subi	r28, 0x36	; 54
    1858:	df 4f       	sbci	r29, 0xFF	; 255
    185a:	88 81       	ld	r24, Y
    185c:	99 81       	ldd	r25, Y+1	; 0x01
    185e:	aa 81       	ldd	r26, Y+2	; 0x02
    1860:	bb 81       	ldd	r27, Y+3	; 0x03
    1862:	ca 5c       	subi	r28, 0xCA	; 202
    1864:	d0 40       	sbci	r29, 0x00	; 0
    1866:	8e 87       	std	Y+14, r24	; 0x0e
    1868:	9f 87       	std	Y+15, r25	; 0x0f
    186a:	a8 8b       	std	Y+16, r26	; 0x10
    186c:	b9 8b       	std	Y+17, r27	; 0x11

0000186e <.LM93>:
    186e:	20 e0       	ldi	r18, 0x00	; 0
    1870:	30 e0       	ldi	r19, 0x00	; 0
    1872:	4a ef       	ldi	r20, 0xFA	; 250
    1874:	54 e4       	ldi	r21, 0x44	; 68
    1876:	6e 85       	ldd	r22, Y+14	; 0x0e
    1878:	7f 85       	ldd	r23, Y+15	; 0x0f
    187a:	88 89       	ldd	r24, Y+16	; 0x10
    187c:	99 89       	ldd	r25, Y+17	; 0x11
    187e:	0e 94 95 12 	call	0x252a	; 0x252a <__mulsf3>
    1882:	c2 53       	subi	r28, 0x32	; 50
    1884:	df 4f       	sbci	r29, 0xFF	; 255
    1886:	68 83       	st	Y, r22
    1888:	79 83       	std	Y+1, r23	; 0x01
    188a:	8a 83       	std	Y+2, r24	; 0x02
    188c:	9b 83       	std	Y+3, r25	; 0x03
    188e:	ce 5c       	subi	r28, 0xCE	; 206
    1890:	d0 40       	sbci	r29, 0x00	; 0
    1892:	c2 53       	subi	r28, 0x32	; 50
    1894:	df 4f       	sbci	r29, 0xFF	; 255
    1896:	88 81       	ld	r24, Y
    1898:	99 81       	ldd	r25, Y+1	; 0x01
    189a:	aa 81       	ldd	r26, Y+2	; 0x02
    189c:	bb 81       	ldd	r27, Y+3	; 0x03
    189e:	ce 5c       	subi	r28, 0xCE	; 206
    18a0:	d0 40       	sbci	r29, 0x00	; 0
    18a2:	8a 8b       	std	Y+18, r24	; 0x12
    18a4:	9b 8b       	std	Y+19, r25	; 0x13
    18a6:	ac 8b       	std	Y+20, r26	; 0x14
    18a8:	bd 8b       	std	Y+21, r27	; 0x15

000018aa <.LM94>:
    18aa:	20 e0       	ldi	r18, 0x00	; 0
    18ac:	30 e0       	ldi	r19, 0x00	; 0
    18ae:	40 e8       	ldi	r20, 0x80	; 128
    18b0:	5f e3       	ldi	r21, 0x3F	; 63
    18b2:	6a 89       	ldd	r22, Y+18	; 0x12
    18b4:	7b 89       	ldd	r23, Y+19	; 0x13
    18b6:	8c 89       	ldd	r24, Y+20	; 0x14
    18b8:	9d 89       	ldd	r25, Y+21	; 0x15
    18ba:	0e 94 38 11 	call	0x2270	; 0x2270 <__cmpsf2>
    18be:	88 23       	and	r24, r24
    18c0:	2c f4       	brge	.+10     	; 0x18cc <.L90>

000018c2 <.LM95>:
    18c2:	81 e0       	ldi	r24, 0x01	; 1
    18c4:	90 e0       	ldi	r25, 0x00	; 0
    18c6:	9f 8b       	std	Y+23, r25	; 0x17
    18c8:	8e 8b       	std	Y+22, r24	; 0x16
    18ca:	71 c0       	rjmp	.+226    	; 0x19ae <.L54>

000018cc <.L90>:
    18cc:	20 e0       	ldi	r18, 0x00	; 0
    18ce:	3f ef       	ldi	r19, 0xFF	; 255
    18d0:	4f e7       	ldi	r20, 0x7F	; 127
    18d2:	57 e4       	ldi	r21, 0x47	; 71
    18d4:	6a 89       	ldd	r22, Y+18	; 0x12
    18d6:	7b 89       	ldd	r23, Y+19	; 0x13
    18d8:	8c 89       	ldd	r24, Y+20	; 0x14
    18da:	9d 89       	ldd	r25, Y+21	; 0x15
    18dc:	0e 94 90 12 	call	0x2520	; 0x2520 <__gesf2>
    18e0:	18 16       	cp	r1, r24
    18e2:	0c f0       	brlt	.+2      	; 0x18e6 <.LM97>

000018e4 <L0^A>:
    18e4:	4e c0       	rjmp	.+156    	; 0x1982 <.L91>

000018e6 <.LM97>:
    18e6:	20 e0       	ldi	r18, 0x00	; 0
    18e8:	30 e0       	ldi	r19, 0x00	; 0
    18ea:	40 e2       	ldi	r20, 0x20	; 32
    18ec:	51 e4       	ldi	r21, 0x41	; 65
    18ee:	6e 85       	ldd	r22, Y+14	; 0x0e
    18f0:	7f 85       	ldd	r23, Y+15	; 0x0f
    18f2:	88 89       	ldd	r24, Y+16	; 0x10
    18f4:	99 89       	ldd	r25, Y+17	; 0x11
    18f6:	0e 94 95 12 	call	0x252a	; 0x252a <__mulsf3>
    18fa:	ce 52       	subi	r28, 0x2E	; 46
    18fc:	df 4f       	sbci	r29, 0xFF	; 255
    18fe:	68 83       	st	Y, r22
    1900:	79 83       	std	Y+1, r23	; 0x01
    1902:	8a 83       	std	Y+2, r24	; 0x02
    1904:	9b 83       	std	Y+3, r25	; 0x03
    1906:	c2 5d       	subi	r28, 0xD2	; 210
    1908:	d0 40       	sbci	r29, 0x00	; 0
    190a:	ce 52       	subi	r28, 0x2E	; 46
    190c:	df 4f       	sbci	r29, 0xFF	; 255
    190e:	28 81       	ld	r18, Y
    1910:	39 81       	ldd	r19, Y+1	; 0x01
    1912:	4a 81       	ldd	r20, Y+2	; 0x02
    1914:	5b 81       	ldd	r21, Y+3	; 0x03
    1916:	c2 5d       	subi	r28, 0xD2	; 210
    1918:	d0 40       	sbci	r29, 0x00	; 0
    191a:	a6 96       	adiw	r28, 0x26	; 38
    191c:	2c af       	std	Y+60, r18	; 0x3c
    191e:	3d af       	std	Y+61, r19	; 0x3d
    1920:	4e af       	std	Y+62, r20	; 0x3e
    1922:	5f af       	std	Y+63, r21	; 0x3f
    1924:	a6 97       	sbiw	r28, 0x26	; 38

00001926 <.LM98>:
    1926:	a6 96       	adiw	r28, 0x26	; 38
    1928:	6c ad       	ldd	r22, Y+60	; 0x3c
    192a:	7d ad       	ldd	r23, Y+61	; 0x3d
    192c:	8e ad       	ldd	r24, Y+62	; 0x3e
    192e:	9f ad       	ldd	r25, Y+63	; 0x3f
    1930:	a6 97       	sbiw	r28, 0x26	; 38
    1932:	0e 94 af 11 	call	0x235e	; 0x235e <__fixunssfsi>
    1936:	ca 52       	subi	r28, 0x2A	; 42
    1938:	df 4f       	sbci	r29, 0xFF	; 255
    193a:	68 83       	st	Y, r22
    193c:	79 83       	std	Y+1, r23	; 0x01
    193e:	8a 83       	std	Y+2, r24	; 0x02
    1940:	9b 83       	std	Y+3, r25	; 0x03
    1942:	c6 5d       	subi	r28, 0xD6	; 214
    1944:	d0 40       	sbci	r29, 0x00	; 0
    1946:	ca 52       	subi	r28, 0x2A	; 42
    1948:	df 4f       	sbci	r29, 0xFF	; 255
    194a:	48 81       	ld	r20, Y
    194c:	59 81       	ldd	r21, Y+1	; 0x01
    194e:	c6 5d       	subi	r28, 0xD6	; 214
    1950:	d0 40       	sbci	r29, 0x00	; 0
    1952:	5f 8b       	std	Y+23, r21	; 0x17
    1954:	4e 8b       	std	Y+22, r20	; 0x16

00001956 <.LM99>:
    1956:	10 c0       	rjmp	.+32     	; 0x1978 <.L57>

00001958 <.L58>:
    1958:	88 ec       	ldi	r24, 0xC8	; 200
    195a:	90 e0       	ldi	r25, 0x00	; 0
    195c:	99 8f       	std	Y+25, r25	; 0x19
    195e:	88 8f       	std	Y+24, r24	; 0x18

00001960 <.LM100>:
    1960:	88 8d       	ldd	r24, Y+24	; 0x18
    1962:	99 8d       	ldd	r25, Y+25	; 0x19

00001964 <.L1^B11>:
    1964:	01 97       	sbiw	r24, 0x01	; 1
    1966:	f1 f7       	brne	.-4      	; 0x1964 <.L1^B11>
    1968:	99 8f       	std	Y+25, r25	; 0x19
    196a:	88 8f       	std	Y+24, r24	; 0x18

0000196c <.LM101>:
	...

0000196e <.LM102>:
    196e:	8e 89       	ldd	r24, Y+22	; 0x16
    1970:	9f 89       	ldd	r25, Y+23	; 0x17
    1972:	01 97       	sbiw	r24, 0x01	; 1
    1974:	9f 8b       	std	Y+23, r25	; 0x17
    1976:	8e 8b       	std	Y+22, r24	; 0x16

00001978 <.L57>:
    1978:	8e 89       	ldd	r24, Y+22	; 0x16
    197a:	9f 89       	ldd	r25, Y+23	; 0x17
    197c:	89 2b       	or	r24, r25
    197e:	61 f7       	brne	.-40     	; 0x1958 <.L58>

00001980 <.LM104>:
    1980:	21 c0       	rjmp	.+66     	; 0x19c4 <.L59>

00001982 <.L91>:
    1982:	6a 89       	ldd	r22, Y+18	; 0x12
    1984:	7b 89       	ldd	r23, Y+19	; 0x13
    1986:	8c 89       	ldd	r24, Y+20	; 0x14
    1988:	9d 89       	ldd	r25, Y+21	; 0x15
    198a:	0e 94 af 11 	call	0x235e	; 0x235e <__fixunssfsi>
    198e:	c6 52       	subi	r28, 0x26	; 38
    1990:	df 4f       	sbci	r29, 0xFF	; 255
    1992:	68 83       	st	Y, r22
    1994:	79 83       	std	Y+1, r23	; 0x01
    1996:	8a 83       	std	Y+2, r24	; 0x02
    1998:	9b 83       	std	Y+3, r25	; 0x03
    199a:	ca 5d       	subi	r28, 0xDA	; 218
    199c:	d0 40       	sbci	r29, 0x00	; 0
    199e:	c6 52       	subi	r28, 0x26	; 38
    19a0:	df 4f       	sbci	r29, 0xFF	; 255
    19a2:	88 81       	ld	r24, Y
    19a4:	99 81       	ldd	r25, Y+1	; 0x01
    19a6:	ca 5d       	subi	r28, 0xDA	; 218
    19a8:	d0 40       	sbci	r29, 0x00	; 0
    19aa:	9f 8b       	std	Y+23, r25	; 0x17
    19ac:	8e 8b       	std	Y+22, r24	; 0x16

000019ae <.L54>:
    19ae:	8e 89       	ldd	r24, Y+22	; 0x16
    19b0:	9f 89       	ldd	r25, Y+23	; 0x17
    19b2:	9b 8f       	std	Y+27, r25	; 0x1b
    19b4:	8a 8f       	std	Y+26, r24	; 0x1a

000019b6 <.LM106>:
    19b6:	8a 8d       	ldd	r24, Y+26	; 0x1a
    19b8:	9b 8d       	ldd	r25, Y+27	; 0x1b

000019ba <.L1^B12>:
    19ba:	01 97       	sbiw	r24, 0x01	; 1
    19bc:	f1 f7       	brne	.-4      	; 0x19ba <.L1^B12>
    19be:	9b 8f       	std	Y+27, r25	; 0x1b
    19c0:	8a 8f       	std	Y+26, r24	; 0x1a

000019c2 <.LM107>:
	...

000019c4 <.L59>:
    19c4:	49 c0       	rjmp	.+146    	; 0x1a58 <.L60>

000019c6 <.L89>:
    19c6:	20 e0       	ldi	r18, 0x00	; 0
    19c8:	30 e0       	ldi	r19, 0x00	; 0
    19ca:	4f e7       	ldi	r20, 0x7F	; 127
    19cc:	53 e4       	ldi	r21, 0x43	; 67
    19ce:	6d 81       	ldd	r22, Y+5	; 0x05
    19d0:	7e 81       	ldd	r23, Y+6	; 0x06
    19d2:	8f 81       	ldd	r24, Y+7	; 0x07
    19d4:	98 85       	ldd	r25, Y+8	; 0x08
    19d6:	0e 94 90 12 	call	0x2520	; 0x2520 <__gesf2>
    19da:	18 16       	cp	r1, r24
    19dc:	14 f5       	brge	.+68     	; 0x1a22 <.L92>

000019de <.LM110>:
    19de:	69 85       	ldd	r22, Y+9	; 0x09
    19e0:	7a 85       	ldd	r23, Y+10	; 0x0a
    19e2:	8b 85       	ldd	r24, Y+11	; 0x0b
    19e4:	9c 85       	ldd	r25, Y+12	; 0x0c
    19e6:	0e 94 af 11 	call	0x235e	; 0x235e <__fixunssfsi>
    19ea:	c2 52       	subi	r28, 0x22	; 34
    19ec:	df 4f       	sbci	r29, 0xFF	; 255
    19ee:	68 83       	st	Y, r22
    19f0:	79 83       	std	Y+1, r23	; 0x01
    19f2:	8a 83       	std	Y+2, r24	; 0x02
    19f4:	9b 83       	std	Y+3, r25	; 0x03
    19f6:	ce 5d       	subi	r28, 0xDE	; 222
    19f8:	d0 40       	sbci	r29, 0x00	; 0
    19fa:	c2 52       	subi	r28, 0x22	; 34
    19fc:	df 4f       	sbci	r29, 0xFF	; 255
    19fe:	a8 81       	ld	r26, Y
    1a00:	b9 81       	ldd	r27, Y+1	; 0x01
    1a02:	ce 5d       	subi	r28, 0xDE	; 222
    1a04:	d0 40       	sbci	r29, 0x00	; 0
    1a06:	bd 8f       	std	Y+29, r27	; 0x1d
    1a08:	ac 8f       	std	Y+28, r26	; 0x1c
    1a0a:	8c 8d       	ldd	r24, Y+28	; 0x1c
    1a0c:	9d 8d       	ldd	r25, Y+29	; 0x1d
    1a0e:	9f 8f       	std	Y+31, r25	; 0x1f
    1a10:	8e 8f       	std	Y+30, r24	; 0x1e

00001a12 <.LM111>:
    1a12:	8e 8d       	ldd	r24, Y+30	; 0x1e
    1a14:	9f 8d       	ldd	r25, Y+31	; 0x1f

00001a16 <.L1^B13>:
    1a16:	01 97       	sbiw	r24, 0x01	; 1
    1a18:	f1 f7       	brne	.-4      	; 0x1a16 <.L1^B13>
    1a1a:	9f 8f       	std	Y+31, r25	; 0x1f
    1a1c:	8e 8f       	std	Y+30, r24	; 0x1e

00001a1e <.LM112>:
	...

00001a20 <.LM113>:
    1a20:	1b c0       	rjmp	.+54     	; 0x1a58 <.L60>

00001a22 <.L92>:
    1a22:	6d 81       	ldd	r22, Y+5	; 0x05
    1a24:	7e 81       	ldd	r23, Y+6	; 0x06
    1a26:	8f 81       	ldd	r24, Y+7	; 0x07
    1a28:	98 85       	ldd	r25, Y+8	; 0x08
    1a2a:	0e 94 af 11 	call	0x235e	; 0x235e <__fixunssfsi>
    1a2e:	ce 51       	subi	r28, 0x1E	; 30
    1a30:	df 4f       	sbci	r29, 0xFF	; 255
    1a32:	68 83       	st	Y, r22
    1a34:	79 83       	std	Y+1, r23	; 0x01
    1a36:	8a 83       	std	Y+2, r24	; 0x02
    1a38:	9b 83       	std	Y+3, r25	; 0x03
    1a3a:	c2 5e       	subi	r28, 0xE2	; 226
    1a3c:	d0 40       	sbci	r29, 0x00	; 0
    1a3e:	ce 51       	subi	r28, 0x1E	; 30
    1a40:	df 4f       	sbci	r29, 0xFF	; 255
    1a42:	b8 81       	ld	r27, Y
    1a44:	c2 5e       	subi	r28, 0xE2	; 226
    1a46:	d0 40       	sbci	r29, 0x00	; 0
    1a48:	bd 87       	std	Y+13, r27	; 0x0d

00001a4a <.L49>:
    1a4a:	8d 85       	ldd	r24, Y+13	; 0x0d
    1a4c:	88 a3       	std	Y+32, r24	; 0x20

00001a4e <.LM115>:
    1a4e:	88 a1       	ldd	r24, Y+32	; 0x20

00001a50 <.L1^B14>:
    1a50:	8a 95       	dec	r24
    1a52:	f1 f7       	brne	.-4      	; 0x1a50 <.L1^B14>
    1a54:	88 a3       	std	Y+32, r24	; 0x20

00001a56 <.LM116>:
	...

00001a58 <.L60>:
    1a58:	40 e0       	ldi	r20, 0x00	; 0
    1a5a:	61 e0       	ldi	r22, 0x01	; 1
    1a5c:	81 e0       	ldi	r24, 0x01	; 1
    1a5e:	0e 94 f4 03 	call	0x7e8	; 0x7e8 <GPIO_writePin>

00001a62 <.LM118>:
    1a62:	00 00       	nop
    1a64:	cb 51       	subi	r28, 0x1B	; 27
    1a66:	df 4f       	sbci	r29, 0xFF	; 255
    1a68:	0f b6       	in	r0, 0x3f	; 63
    1a6a:	f8 94       	cli
    1a6c:	de bf       	out	0x3e, r29	; 62
    1a6e:	0f be       	out	0x3f, r0	; 63
    1a70:	cd bf       	out	0x3d, r28	; 61
    1a72:	df 91       	pop	r29
    1a74:	cf 91       	pop	r28
    1a76:	1f 91       	pop	r17
    1a78:	0f 91       	pop	r16
    1a7a:	08 95       	ret

00001a7c <LCD_displayCharacter>:
    1a7c:	cf 93       	push	r28
    1a7e:	df 93       	push	r29
    1a80:	cd b7       	in	r28, 0x3d	; 61
    1a82:	de b7       	in	r29, 0x3e	; 62
    1a84:	c1 59       	subi	r28, 0x91	; 145
    1a86:	d1 09       	sbc	r29, r1
    1a88:	0f b6       	in	r0, 0x3f	; 63
    1a8a:	f8 94       	cli
    1a8c:	de bf       	out	0x3e, r29	; 62
    1a8e:	0f be       	out	0x3f, r0	; 63
    1a90:	cd bf       	out	0x3d, r28	; 61
    1a92:	8d af       	std	Y+61, r24	; 0x3d

00001a94 <.LM120>:
    1a94:	41 e0       	ldi	r20, 0x01	; 1
    1a96:	60 e0       	ldi	r22, 0x00	; 0
    1a98:	81 e0       	ldi	r24, 0x01	; 1
    1a9a:	0e 94 f4 03 	call	0x7e8	; 0x7e8 <GPIO_writePin>
    1a9e:	80 e0       	ldi	r24, 0x00	; 0
    1aa0:	90 e0       	ldi	r25, 0x00	; 0
    1aa2:	a0 e8       	ldi	r26, 0x80	; 128
    1aa4:	bf e3       	ldi	r27, 0x3F	; 63
    1aa6:	8f a7       	std	Y+47, r24	; 0x2f
    1aa8:	98 ab       	std	Y+48, r25	; 0x30
    1aaa:	a9 ab       	std	Y+49, r26	; 0x31
    1aac:	ba ab       	std	Y+50, r27	; 0x32

00001aae <.LM121>:
    1aae:	20 e0       	ldi	r18, 0x00	; 0
    1ab0:	30 e0       	ldi	r19, 0x00	; 0
    1ab2:	4a ef       	ldi	r20, 0xFA	; 250
    1ab4:	54 e4       	ldi	r21, 0x44	; 68
    1ab6:	6f a5       	ldd	r22, Y+47	; 0x2f
    1ab8:	78 a9       	ldd	r23, Y+48	; 0x30
    1aba:	89 a9       	ldd	r24, Y+49	; 0x31
    1abc:	9a a9       	ldd	r25, Y+50	; 0x32
    1abe:	0e 94 95 12 	call	0x252a	; 0x252a <__mulsf3>
    1ac2:	2e 96       	adiw	r28, 0x0e	; 14
    1ac4:	6c af       	std	Y+60, r22	; 0x3c
    1ac6:	7d af       	std	Y+61, r23	; 0x3d
    1ac8:	8e af       	std	Y+62, r24	; 0x3e
    1aca:	9f af       	std	Y+63, r25	; 0x3f
    1acc:	2e 97       	sbiw	r28, 0x0e	; 14
    1ace:	2e 96       	adiw	r28, 0x0e	; 14
    1ad0:	8c ad       	ldd	r24, Y+60	; 0x3c
    1ad2:	9d ad       	ldd	r25, Y+61	; 0x3d
    1ad4:	ae ad       	ldd	r26, Y+62	; 0x3e
    1ad6:	bf ad       	ldd	r27, Y+63	; 0x3f
    1ad8:	2e 97       	sbiw	r28, 0x0e	; 14
    1ada:	8b ab       	std	Y+51, r24	; 0x33
    1adc:	9c ab       	std	Y+52, r25	; 0x34
    1ade:	ad ab       	std	Y+53, r26	; 0x35
    1ae0:	be ab       	std	Y+54, r27	; 0x36

00001ae2 <.LM122>:
    1ae2:	20 e0       	ldi	r18, 0x00	; 0
    1ae4:	30 e0       	ldi	r19, 0x00	; 0
    1ae6:	40 e8       	ldi	r20, 0x80	; 128
    1ae8:	5f e3       	ldi	r21, 0x3F	; 63
    1aea:	6b a9       	ldd	r22, Y+51	; 0x33
    1aec:	7c a9       	ldd	r23, Y+52	; 0x34
    1aee:	8d a9       	ldd	r24, Y+53	; 0x35
    1af0:	9e a9       	ldd	r25, Y+54	; 0x36
    1af2:	0e 94 38 11 	call	0x2270	; 0x2270 <__cmpsf2>
    1af6:	88 23       	and	r24, r24
    1af8:	2c f4       	brge	.+10     	; 0x1b04 <.L135>

00001afa <.LM123>:
    1afa:	81 e0       	ldi	r24, 0x01	; 1
    1afc:	90 e0       	ldi	r25, 0x00	; 0
    1afe:	98 af       	std	Y+56, r25	; 0x38
    1b00:	8f ab       	std	Y+55, r24	; 0x37
    1b02:	65 c0       	rjmp	.+202    	; 0x1bce <.L96>

00001b04 <.L135>:
    1b04:	20 e0       	ldi	r18, 0x00	; 0
    1b06:	3f ef       	ldi	r19, 0xFF	; 255
    1b08:	4f e7       	ldi	r20, 0x7F	; 127
    1b0a:	57 e4       	ldi	r21, 0x47	; 71
    1b0c:	6b a9       	ldd	r22, Y+51	; 0x33
    1b0e:	7c a9       	ldd	r23, Y+52	; 0x34
    1b10:	8d a9       	ldd	r24, Y+53	; 0x35
    1b12:	9e a9       	ldd	r25, Y+54	; 0x36
    1b14:	0e 94 90 12 	call	0x2520	; 0x2520 <__gesf2>
    1b18:	18 16       	cp	r1, r24
    1b1a:	0c f0       	brlt	.+2      	; 0x1b1e <.LM125>

00001b1c <L0^A>:
    1b1c:	46 c0       	rjmp	.+140    	; 0x1baa <.L136>

00001b1e <.LM125>:
    1b1e:	20 e0       	ldi	r18, 0x00	; 0
    1b20:	30 e0       	ldi	r19, 0x00	; 0
    1b22:	40 e2       	ldi	r20, 0x20	; 32
    1b24:	51 e4       	ldi	r21, 0x41	; 65
    1b26:	6f a5       	ldd	r22, Y+47	; 0x2f
    1b28:	78 a9       	ldd	r23, Y+48	; 0x30
    1b2a:	89 a9       	ldd	r24, Y+49	; 0x31
    1b2c:	9a a9       	ldd	r25, Y+50	; 0x32
    1b2e:	0e 94 95 12 	call	0x252a	; 0x252a <__mulsf3>
    1b32:	62 96       	adiw	r28, 0x12	; 18
    1b34:	6c af       	std	Y+60, r22	; 0x3c
    1b36:	7d af       	std	Y+61, r23	; 0x3d
    1b38:	8e af       	std	Y+62, r24	; 0x3e
    1b3a:	9f af       	std	Y+63, r25	; 0x3f
    1b3c:	62 97       	sbiw	r28, 0x12	; 18
    1b3e:	62 96       	adiw	r28, 0x12	; 18
    1b40:	8c ad       	ldd	r24, Y+60	; 0x3c
    1b42:	9d ad       	ldd	r25, Y+61	; 0x3d
    1b44:	ae ad       	ldd	r26, Y+62	; 0x3e
    1b46:	bf ad       	ldd	r27, Y+63	; 0x3f
    1b48:	62 97       	sbiw	r28, 0x12	; 18
    1b4a:	2a 96       	adiw	r28, 0x0a	; 10
    1b4c:	8c af       	std	Y+60, r24	; 0x3c
    1b4e:	9d af       	std	Y+61, r25	; 0x3d
    1b50:	ae af       	std	Y+62, r26	; 0x3e
    1b52:	bf af       	std	Y+63, r27	; 0x3f
    1b54:	2a 97       	sbiw	r28, 0x0a	; 10

00001b56 <.LM126>:
    1b56:	2a 96       	adiw	r28, 0x0a	; 10
    1b58:	6c ad       	ldd	r22, Y+60	; 0x3c
    1b5a:	7d ad       	ldd	r23, Y+61	; 0x3d
    1b5c:	8e ad       	ldd	r24, Y+62	; 0x3e
    1b5e:	9f ad       	ldd	r25, Y+63	; 0x3f
    1b60:	2a 97       	sbiw	r28, 0x0a	; 10
    1b62:	0e 94 af 11 	call	0x235e	; 0x235e <__fixunssfsi>
    1b66:	66 96       	adiw	r28, 0x16	; 22
    1b68:	6c af       	std	Y+60, r22	; 0x3c
    1b6a:	7d af       	std	Y+61, r23	; 0x3d
    1b6c:	8e af       	std	Y+62, r24	; 0x3e
    1b6e:	9f af       	std	Y+63, r25	; 0x3f
    1b70:	66 97       	sbiw	r28, 0x16	; 22
    1b72:	64 96       	adiw	r28, 0x14	; 20
    1b74:	ae ad       	ldd	r26, Y+62	; 0x3e
    1b76:	bf ad       	ldd	r27, Y+63	; 0x3f
    1b78:	64 97       	sbiw	r28, 0x14	; 20
    1b7a:	b8 af       	std	Y+56, r27	; 0x38
    1b7c:	af ab       	std	Y+55, r26	; 0x37

00001b7e <.LM127>:
    1b7e:	10 c0       	rjmp	.+32     	; 0x1ba0 <.L99>

00001b80 <.L100>:
    1b80:	88 ec       	ldi	r24, 0xC8	; 200
    1b82:	90 e0       	ldi	r25, 0x00	; 0
    1b84:	9a af       	std	Y+58, r25	; 0x3a
    1b86:	89 af       	std	Y+57, r24	; 0x39

00001b88 <.LM128>:
    1b88:	89 ad       	ldd	r24, Y+57	; 0x39
    1b8a:	9a ad       	ldd	r25, Y+58	; 0x3a

00001b8c <.L1^B15>:
    1b8c:	01 97       	sbiw	r24, 0x01	; 1
    1b8e:	f1 f7       	brne	.-4      	; 0x1b8c <.L1^B15>
    1b90:	9a af       	std	Y+58, r25	; 0x3a
    1b92:	89 af       	std	Y+57, r24	; 0x39

00001b94 <.LM129>:
	...

00001b96 <.LM130>:
    1b96:	8f a9       	ldd	r24, Y+55	; 0x37
    1b98:	98 ad       	ldd	r25, Y+56	; 0x38
    1b9a:	01 97       	sbiw	r24, 0x01	; 1
    1b9c:	98 af       	std	Y+56, r25	; 0x38
    1b9e:	8f ab       	std	Y+55, r24	; 0x37

00001ba0 <.L99>:
    1ba0:	8f a9       	ldd	r24, Y+55	; 0x37
    1ba2:	98 ad       	ldd	r25, Y+56	; 0x38
    1ba4:	89 2b       	or	r24, r25
    1ba6:	61 f7       	brne	.-40     	; 0x1b80 <.L100>

00001ba8 <.LM132>:
    1ba8:	1d c0       	rjmp	.+58     	; 0x1be4 <.L101>

00001baa <.L136>:
    1baa:	6b a9       	ldd	r22, Y+51	; 0x33
    1bac:	7c a9       	ldd	r23, Y+52	; 0x34
    1bae:	8d a9       	ldd	r24, Y+53	; 0x35
    1bb0:	9e a9       	ldd	r25, Y+54	; 0x36
    1bb2:	0e 94 af 11 	call	0x235e	; 0x235e <__fixunssfsi>
    1bb6:	6a 96       	adiw	r28, 0x1a	; 26
    1bb8:	6c af       	std	Y+60, r22	; 0x3c
    1bba:	7d af       	std	Y+61, r23	; 0x3d
    1bbc:	8e af       	std	Y+62, r24	; 0x3e
    1bbe:	9f af       	std	Y+63, r25	; 0x3f
    1bc0:	6a 97       	sbiw	r28, 0x1a	; 26
    1bc2:	68 96       	adiw	r28, 0x18	; 24
    1bc4:	8e ad       	ldd	r24, Y+62	; 0x3e
    1bc6:	9f ad       	ldd	r25, Y+63	; 0x3f
    1bc8:	68 97       	sbiw	r28, 0x18	; 24
    1bca:	98 af       	std	Y+56, r25	; 0x38
    1bcc:	8f ab       	std	Y+55, r24	; 0x37

00001bce <.L96>:
    1bce:	8f a9       	ldd	r24, Y+55	; 0x37
    1bd0:	98 ad       	ldd	r25, Y+56	; 0x38
    1bd2:	9c af       	std	Y+60, r25	; 0x3c
    1bd4:	8b af       	std	Y+59, r24	; 0x3b

00001bd6 <.LM134>:
    1bd6:	8b ad       	ldd	r24, Y+59	; 0x3b
    1bd8:	9c ad       	ldd	r25, Y+60	; 0x3c

00001bda <.L1^B16>:
    1bda:	01 97       	sbiw	r24, 0x01	; 1
    1bdc:	f1 f7       	brne	.-4      	; 0x1bda <.L1^B16>
    1bde:	9c af       	std	Y+60, r25	; 0x3c
    1be0:	8b af       	std	Y+59, r24	; 0x3b

00001be2 <.LM135>:
	...

00001be4 <.L101>:
    1be4:	41 e0       	ldi	r20, 0x01	; 1
    1be6:	61 e0       	ldi	r22, 0x01	; 1
    1be8:	81 e0       	ldi	r24, 0x01	; 1
    1bea:	0e 94 f4 03 	call	0x7e8	; 0x7e8 <GPIO_writePin>
    1bee:	80 e0       	ldi	r24, 0x00	; 0
    1bf0:	90 e0       	ldi	r25, 0x00	; 0
    1bf2:	a0 e8       	ldi	r26, 0x80	; 128
    1bf4:	bf e3       	ldi	r27, 0x3F	; 63
    1bf6:	89 a3       	std	Y+33, r24	; 0x21
    1bf8:	9a a3       	std	Y+34, r25	; 0x22
    1bfa:	ab a3       	std	Y+35, r26	; 0x23
    1bfc:	bc a3       	std	Y+36, r27	; 0x24

00001bfe <.LM137>:
    1bfe:	20 e0       	ldi	r18, 0x00	; 0
    1c00:	30 e0       	ldi	r19, 0x00	; 0
    1c02:	4a ef       	ldi	r20, 0xFA	; 250
    1c04:	54 e4       	ldi	r21, 0x44	; 68
    1c06:	69 a1       	ldd	r22, Y+33	; 0x21
    1c08:	7a a1       	ldd	r23, Y+34	; 0x22
    1c0a:	8b a1       	ldd	r24, Y+35	; 0x23
    1c0c:	9c a1       	ldd	r25, Y+36	; 0x24
    1c0e:	0e 94 95 12 	call	0x252a	; 0x252a <__mulsf3>
    1c12:	6e 96       	adiw	r28, 0x1e	; 30
    1c14:	6c af       	std	Y+60, r22	; 0x3c
    1c16:	7d af       	std	Y+61, r23	; 0x3d
    1c18:	8e af       	std	Y+62, r24	; 0x3e
    1c1a:	9f af       	std	Y+63, r25	; 0x3f
    1c1c:	6e 97       	sbiw	r28, 0x1e	; 30
    1c1e:	6e 96       	adiw	r28, 0x1e	; 30
    1c20:	8c ad       	ldd	r24, Y+60	; 0x3c
    1c22:	9d ad       	ldd	r25, Y+61	; 0x3d
    1c24:	ae ad       	ldd	r26, Y+62	; 0x3e
    1c26:	bf ad       	ldd	r27, Y+63	; 0x3f
    1c28:	6e 97       	sbiw	r28, 0x1e	; 30
    1c2a:	8d a3       	std	Y+37, r24	; 0x25
    1c2c:	9e a3       	std	Y+38, r25	; 0x26
    1c2e:	af a3       	std	Y+39, r26	; 0x27
    1c30:	b8 a7       	std	Y+40, r27	; 0x28

00001c32 <.LM138>:
    1c32:	20 e0       	ldi	r18, 0x00	; 0
    1c34:	30 e0       	ldi	r19, 0x00	; 0
    1c36:	40 e8       	ldi	r20, 0x80	; 128
    1c38:	5f e3       	ldi	r21, 0x3F	; 63
    1c3a:	6d a1       	ldd	r22, Y+37	; 0x25
    1c3c:	7e a1       	ldd	r23, Y+38	; 0x26
    1c3e:	8f a1       	ldd	r24, Y+39	; 0x27
    1c40:	98 a5       	ldd	r25, Y+40	; 0x28
    1c42:	0e 94 38 11 	call	0x2270	; 0x2270 <__cmpsf2>
    1c46:	88 23       	and	r24, r24
    1c48:	2c f4       	brge	.+10     	; 0x1c54 <.L137>

00001c4a <.LM139>:
    1c4a:	81 e0       	ldi	r24, 0x01	; 1
    1c4c:	90 e0       	ldi	r25, 0x00	; 0
    1c4e:	9a a7       	std	Y+42, r25	; 0x2a
    1c50:	89 a7       	std	Y+41, r24	; 0x29
    1c52:	65 c0       	rjmp	.+202    	; 0x1d1e <.L104>

00001c54 <.L137>:
    1c54:	20 e0       	ldi	r18, 0x00	; 0
    1c56:	3f ef       	ldi	r19, 0xFF	; 255
    1c58:	4f e7       	ldi	r20, 0x7F	; 127
    1c5a:	57 e4       	ldi	r21, 0x47	; 71
    1c5c:	6d a1       	ldd	r22, Y+37	; 0x25
    1c5e:	7e a1       	ldd	r23, Y+38	; 0x26
    1c60:	8f a1       	ldd	r24, Y+39	; 0x27
    1c62:	98 a5       	ldd	r25, Y+40	; 0x28
    1c64:	0e 94 90 12 	call	0x2520	; 0x2520 <__gesf2>
    1c68:	18 16       	cp	r1, r24
    1c6a:	0c f0       	brlt	.+2      	; 0x1c6e <.LM141>

00001c6c <L0^A>:
    1c6c:	46 c0       	rjmp	.+140    	; 0x1cfa <.L138>

00001c6e <.LM141>:
    1c6e:	20 e0       	ldi	r18, 0x00	; 0
    1c70:	30 e0       	ldi	r19, 0x00	; 0
    1c72:	40 e2       	ldi	r20, 0x20	; 32
    1c74:	51 e4       	ldi	r21, 0x41	; 65
    1c76:	69 a1       	ldd	r22, Y+33	; 0x21
    1c78:	7a a1       	ldd	r23, Y+34	; 0x22
    1c7a:	8b a1       	ldd	r24, Y+35	; 0x23
    1c7c:	9c a1       	ldd	r25, Y+36	; 0x24
    1c7e:	0e 94 95 12 	call	0x252a	; 0x252a <__mulsf3>
    1c82:	a2 96       	adiw	r28, 0x22	; 34
    1c84:	6c af       	std	Y+60, r22	; 0x3c
    1c86:	7d af       	std	Y+61, r23	; 0x3d
    1c88:	8e af       	std	Y+62, r24	; 0x3e
    1c8a:	9f af       	std	Y+63, r25	; 0x3f
    1c8c:	a2 97       	sbiw	r28, 0x22	; 34
    1c8e:	a2 96       	adiw	r28, 0x22	; 34
    1c90:	8c ad       	ldd	r24, Y+60	; 0x3c
    1c92:	9d ad       	ldd	r25, Y+61	; 0x3d
    1c94:	ae ad       	ldd	r26, Y+62	; 0x3e
    1c96:	bf ad       	ldd	r27, Y+63	; 0x3f
    1c98:	a2 97       	sbiw	r28, 0x22	; 34
    1c9a:	26 96       	adiw	r28, 0x06	; 6
    1c9c:	8c af       	std	Y+60, r24	; 0x3c
    1c9e:	9d af       	std	Y+61, r25	; 0x3d
    1ca0:	ae af       	std	Y+62, r26	; 0x3e
    1ca2:	bf af       	std	Y+63, r27	; 0x3f
    1ca4:	26 97       	sbiw	r28, 0x06	; 6

00001ca6 <.LM142>:
    1ca6:	26 96       	adiw	r28, 0x06	; 6
    1ca8:	6c ad       	ldd	r22, Y+60	; 0x3c
    1caa:	7d ad       	ldd	r23, Y+61	; 0x3d
    1cac:	8e ad       	ldd	r24, Y+62	; 0x3e
    1cae:	9f ad       	ldd	r25, Y+63	; 0x3f
    1cb0:	26 97       	sbiw	r28, 0x06	; 6
    1cb2:	0e 94 af 11 	call	0x235e	; 0x235e <__fixunssfsi>
    1cb6:	a6 96       	adiw	r28, 0x26	; 38
    1cb8:	6c af       	std	Y+60, r22	; 0x3c
    1cba:	7d af       	std	Y+61, r23	; 0x3d
    1cbc:	8e af       	std	Y+62, r24	; 0x3e
    1cbe:	9f af       	std	Y+63, r25	; 0x3f
    1cc0:	a6 97       	sbiw	r28, 0x26	; 38
    1cc2:	a4 96       	adiw	r28, 0x24	; 36
    1cc4:	ae ad       	ldd	r26, Y+62	; 0x3e
    1cc6:	bf ad       	ldd	r27, Y+63	; 0x3f
    1cc8:	a4 97       	sbiw	r28, 0x24	; 36
    1cca:	ba a7       	std	Y+42, r27	; 0x2a
    1ccc:	a9 a7       	std	Y+41, r26	; 0x29

00001cce <.LM143>:
    1cce:	10 c0       	rjmp	.+32     	; 0x1cf0 <.L107>

00001cd0 <.L108>:
    1cd0:	88 ec       	ldi	r24, 0xC8	; 200
    1cd2:	90 e0       	ldi	r25, 0x00	; 0
    1cd4:	9c a7       	std	Y+44, r25	; 0x2c
    1cd6:	8b a7       	std	Y+43, r24	; 0x2b

00001cd8 <.LM144>:
    1cd8:	8b a5       	ldd	r24, Y+43	; 0x2b
    1cda:	9c a5       	ldd	r25, Y+44	; 0x2c

00001cdc <.L1^B17>:
    1cdc:	01 97       	sbiw	r24, 0x01	; 1
    1cde:	f1 f7       	brne	.-4      	; 0x1cdc <.L1^B17>
    1ce0:	9c a7       	std	Y+44, r25	; 0x2c
    1ce2:	8b a7       	std	Y+43, r24	; 0x2b

00001ce4 <.LM145>:
	...

00001ce6 <.LM146>:
    1ce6:	89 a5       	ldd	r24, Y+41	; 0x29
    1ce8:	9a a5       	ldd	r25, Y+42	; 0x2a
    1cea:	01 97       	sbiw	r24, 0x01	; 1
    1cec:	9a a7       	std	Y+42, r25	; 0x2a
    1cee:	89 a7       	std	Y+41, r24	; 0x29

00001cf0 <.L107>:
    1cf0:	89 a5       	ldd	r24, Y+41	; 0x29
    1cf2:	9a a5       	ldd	r25, Y+42	; 0x2a
    1cf4:	89 2b       	or	r24, r25
    1cf6:	61 f7       	brne	.-40     	; 0x1cd0 <.L108>

00001cf8 <.LM148>:
    1cf8:	1d c0       	rjmp	.+58     	; 0x1d34 <.L109>

00001cfa <.L138>:
    1cfa:	6d a1       	ldd	r22, Y+37	; 0x25
    1cfc:	7e a1       	ldd	r23, Y+38	; 0x26
    1cfe:	8f a1       	ldd	r24, Y+39	; 0x27
    1d00:	98 a5       	ldd	r25, Y+40	; 0x28
    1d02:	0e 94 af 11 	call	0x235e	; 0x235e <__fixunssfsi>
    1d06:	aa 96       	adiw	r28, 0x2a	; 42
    1d08:	6c af       	std	Y+60, r22	; 0x3c
    1d0a:	7d af       	std	Y+61, r23	; 0x3d
    1d0c:	8e af       	std	Y+62, r24	; 0x3e
    1d0e:	9f af       	std	Y+63, r25	; 0x3f
    1d10:	aa 97       	sbiw	r28, 0x2a	; 42
    1d12:	a8 96       	adiw	r28, 0x28	; 40
    1d14:	8e ad       	ldd	r24, Y+62	; 0x3e
    1d16:	9f ad       	ldd	r25, Y+63	; 0x3f
    1d18:	a8 97       	sbiw	r28, 0x28	; 40
    1d1a:	9a a7       	std	Y+42, r25	; 0x2a
    1d1c:	89 a7       	std	Y+41, r24	; 0x29

00001d1e <.L104>:
    1d1e:	89 a5       	ldd	r24, Y+41	; 0x29
    1d20:	9a a5       	ldd	r25, Y+42	; 0x2a
    1d22:	9e a7       	std	Y+46, r25	; 0x2e
    1d24:	8d a7       	std	Y+45, r24	; 0x2d

00001d26 <.LM150>:
    1d26:	8d a5       	ldd	r24, Y+45	; 0x2d
    1d28:	9e a5       	ldd	r25, Y+46	; 0x2e

00001d2a <.L1^B18>:
    1d2a:	01 97       	sbiw	r24, 0x01	; 1
    1d2c:	f1 f7       	brne	.-4      	; 0x1d2a <.L1^B18>
    1d2e:	9e a7       	std	Y+46, r25	; 0x2e
    1d30:	8d a7       	std	Y+45, r24	; 0x2d

00001d32 <.LM151>:
	...

00001d34 <.L109>:
    1d34:	6d ad       	ldd	r22, Y+61	; 0x3d
    1d36:	80 e0       	ldi	r24, 0x00	; 0
    1d38:	0e 94 ad 05 	call	0xb5a	; 0xb5a <GPIO_writePort>
    1d3c:	80 e0       	ldi	r24, 0x00	; 0
    1d3e:	90 e0       	ldi	r25, 0x00	; 0
    1d40:	a0 e8       	ldi	r26, 0x80	; 128
    1d42:	bf e3       	ldi	r27, 0x3F	; 63
    1d44:	89 83       	std	Y+1, r24	; 0x01
    1d46:	9a 83       	std	Y+2, r25	; 0x02
    1d48:	ab 83       	std	Y+3, r26	; 0x03
    1d4a:	bc 83       	std	Y+4, r27	; 0x04

00001d4c <.LM153>:
    1d4c:	2b ea       	ldi	r18, 0xAB	; 171
    1d4e:	3a ea       	ldi	r19, 0xAA	; 170
    1d50:	4a e2       	ldi	r20, 0x2A	; 42
    1d52:	50 e4       	ldi	r21, 0x40	; 64
    1d54:	69 81       	ldd	r22, Y+1	; 0x01
    1d56:	7a 81       	ldd	r23, Y+2	; 0x02
    1d58:	8b 81       	ldd	r24, Y+3	; 0x03
    1d5a:	9c 81       	ldd	r25, Y+4	; 0x04
    1d5c:	0e 94 95 12 	call	0x252a	; 0x252a <__mulsf3>
    1d60:	ae 96       	adiw	r28, 0x2e	; 46
    1d62:	6c af       	std	Y+60, r22	; 0x3c
    1d64:	7d af       	std	Y+61, r23	; 0x3d
    1d66:	8e af       	std	Y+62, r24	; 0x3e
    1d68:	9f af       	std	Y+63, r25	; 0x3f
    1d6a:	ae 97       	sbiw	r28, 0x2e	; 46
    1d6c:	ae 96       	adiw	r28, 0x2e	; 46
    1d6e:	8c ad       	ldd	r24, Y+60	; 0x3c
    1d70:	9d ad       	ldd	r25, Y+61	; 0x3d
    1d72:	ae ad       	ldd	r26, Y+62	; 0x3e
    1d74:	bf ad       	ldd	r27, Y+63	; 0x3f
    1d76:	ae 97       	sbiw	r28, 0x2e	; 46
    1d78:	8d 83       	std	Y+5, r24	; 0x05
    1d7a:	9e 83       	std	Y+6, r25	; 0x06
    1d7c:	af 83       	std	Y+7, r26	; 0x07
    1d7e:	b8 87       	std	Y+8, r27	; 0x08

00001d80 <.LM154>:
    1d80:	89 81       	ldd	r24, Y+1	; 0x01
    1d82:	9a 81       	ldd	r25, Y+2	; 0x02
    1d84:	ab 81       	ldd	r26, Y+3	; 0x03
    1d86:	bc 81       	ldd	r27, Y+4	; 0x04
    1d88:	e2 96       	adiw	r28, 0x32	; 50
    1d8a:	8c af       	std	Y+60, r24	; 0x3c
    1d8c:	9d af       	std	Y+61, r25	; 0x3d
    1d8e:	ae af       	std	Y+62, r26	; 0x3e
    1d90:	bf af       	std	Y+63, r27	; 0x3f
    1d92:	e2 97       	sbiw	r28, 0x32	; 50
    1d94:	e2 96       	adiw	r28, 0x32	; 50
    1d96:	2c ad       	ldd	r18, Y+60	; 0x3c
    1d98:	3d ad       	ldd	r19, Y+61	; 0x3d
    1d9a:	4e ad       	ldd	r20, Y+62	; 0x3e
    1d9c:	5f ad       	ldd	r21, Y+63	; 0x3f
    1d9e:	e2 97       	sbiw	r28, 0x32	; 50
    1da0:	e2 96       	adiw	r28, 0x32	; 50
    1da2:	6c ad       	ldd	r22, Y+60	; 0x3c
    1da4:	7d ad       	ldd	r23, Y+61	; 0x3d
    1da6:	8e ad       	ldd	r24, Y+62	; 0x3e
    1da8:	9f ad       	ldd	r25, Y+63	; 0x3f
    1daa:	e2 97       	sbiw	r28, 0x32	; 50
    1dac:	0e 94 cc 10 	call	0x2198	; 0x2198 <__addsf3>
    1db0:	e6 96       	adiw	r28, 0x36	; 54
    1db2:	6c af       	std	Y+60, r22	; 0x3c
    1db4:	7d af       	std	Y+61, r23	; 0x3d
    1db6:	8e af       	std	Y+62, r24	; 0x3e
    1db8:	9f af       	std	Y+63, r25	; 0x3f
    1dba:	e6 97       	sbiw	r28, 0x36	; 54
    1dbc:	e6 96       	adiw	r28, 0x36	; 54
    1dbe:	8c ad       	ldd	r24, Y+60	; 0x3c
    1dc0:	9d ad       	ldd	r25, Y+61	; 0x3d
    1dc2:	ae ad       	ldd	r26, Y+62	; 0x3e
    1dc4:	bf ad       	ldd	r27, Y+63	; 0x3f
    1dc6:	e6 97       	sbiw	r28, 0x36	; 54
    1dc8:	89 87       	std	Y+9, r24	; 0x09
    1dca:	9a 87       	std	Y+10, r25	; 0x0a
    1dcc:	ab 87       	std	Y+11, r26	; 0x0b
    1dce:	bc 87       	std	Y+12, r27	; 0x0c

00001dd0 <.LM155>:
    1dd0:	20 e0       	ldi	r18, 0x00	; 0
    1dd2:	30 e0       	ldi	r19, 0x00	; 0
    1dd4:	40 e8       	ldi	r20, 0x80	; 128
    1dd6:	5f e3       	ldi	r21, 0x3F	; 63
    1dd8:	6d 81       	ldd	r22, Y+5	; 0x05
    1dda:	7e 81       	ldd	r23, Y+6	; 0x06
    1ddc:	8f 81       	ldd	r24, Y+7	; 0x07
    1dde:	98 85       	ldd	r25, Y+8	; 0x08
    1de0:	0e 94 38 11 	call	0x2270	; 0x2270 <__cmpsf2>
    1de4:	88 23       	and	r24, r24
    1de6:	1c f4       	brge	.+6      	; 0x1dee <.L139>

00001de8 <.LM156>:
    1de8:	81 e0       	ldi	r24, 0x01	; 1
    1dea:	8d 87       	std	Y+13, r24	; 0x0d
    1dec:	11 c1       	rjmp	.+546    	; 0x2010 <.L112>

00001dee <.L139>:
    1dee:	20 e0       	ldi	r18, 0x00	; 0
    1df0:	3f ef       	ldi	r19, 0xFF	; 255
    1df2:	4f e7       	ldi	r20, 0x7F	; 127
    1df4:	57 e4       	ldi	r21, 0x47	; 71
    1df6:	69 85       	ldd	r22, Y+9	; 0x09
    1df8:	7a 85       	ldd	r23, Y+10	; 0x0a
    1dfa:	8b 85       	ldd	r24, Y+11	; 0x0b
    1dfc:	9c 85       	ldd	r25, Y+12	; 0x0c
    1dfe:	0e 94 90 12 	call	0x2520	; 0x2520 <__gesf2>
    1e02:	18 16       	cp	r1, r24
    1e04:	0c f0       	brlt	.+2      	; 0x1e08 <.LM158>

00001e06 <L0^A>:
    1e06:	c2 c0       	rjmp	.+388    	; 0x1f8c <.L140>

00001e08 <.LM158>:
    1e08:	20 e0       	ldi	r18, 0x00	; 0
    1e0a:	30 e0       	ldi	r19, 0x00	; 0
    1e0c:	4a e7       	ldi	r20, 0x7A	; 122
    1e0e:	54 e4       	ldi	r21, 0x44	; 68
    1e10:	69 81       	ldd	r22, Y+1	; 0x01
    1e12:	7a 81       	ldd	r23, Y+2	; 0x02
    1e14:	8b 81       	ldd	r24, Y+3	; 0x03
    1e16:	9c 81       	ldd	r25, Y+4	; 0x04
    1e18:	0e 94 3d 11 	call	0x227a	; 0x227a <__divsf3>
    1e1c:	ea 96       	adiw	r28, 0x3a	; 58
    1e1e:	6c af       	std	Y+60, r22	; 0x3c
    1e20:	7d af       	std	Y+61, r23	; 0x3d
    1e22:	8e af       	std	Y+62, r24	; 0x3e
    1e24:	9f af       	std	Y+63, r25	; 0x3f
    1e26:	ea 97       	sbiw	r28, 0x3a	; 58
    1e28:	ea 96       	adiw	r28, 0x3a	; 58
    1e2a:	8c ad       	ldd	r24, Y+60	; 0x3c
    1e2c:	9d ad       	ldd	r25, Y+61	; 0x3d
    1e2e:	ae ad       	ldd	r26, Y+62	; 0x3e
    1e30:	bf ad       	ldd	r27, Y+63	; 0x3f
    1e32:	ea 97       	sbiw	r28, 0x3a	; 58
    1e34:	8e 87       	std	Y+14, r24	; 0x0e
    1e36:	9f 87       	std	Y+15, r25	; 0x0f
    1e38:	a8 8b       	std	Y+16, r26	; 0x10
    1e3a:	b9 8b       	std	Y+17, r27	; 0x11

00001e3c <.LM159>:
    1e3c:	20 e0       	ldi	r18, 0x00	; 0
    1e3e:	30 e0       	ldi	r19, 0x00	; 0
    1e40:	4a ef       	ldi	r20, 0xFA	; 250
    1e42:	54 e4       	ldi	r21, 0x44	; 68
    1e44:	6e 85       	ldd	r22, Y+14	; 0x0e
    1e46:	7f 85       	ldd	r23, Y+15	; 0x0f
    1e48:	88 89       	ldd	r24, Y+16	; 0x10
    1e4a:	99 89       	ldd	r25, Y+17	; 0x11
    1e4c:	0e 94 95 12 	call	0x252a	; 0x252a <__mulsf3>
    1e50:	ee 96       	adiw	r28, 0x3e	; 62
    1e52:	6c af       	std	Y+60, r22	; 0x3c
    1e54:	7d af       	std	Y+61, r23	; 0x3d
    1e56:	8e af       	std	Y+62, r24	; 0x3e
    1e58:	9f af       	std	Y+63, r25	; 0x3f
    1e5a:	ee 97       	sbiw	r28, 0x3e	; 62
    1e5c:	ee 96       	adiw	r28, 0x3e	; 62
    1e5e:	8c ad       	ldd	r24, Y+60	; 0x3c
    1e60:	9d ad       	ldd	r25, Y+61	; 0x3d
    1e62:	ae ad       	ldd	r26, Y+62	; 0x3e
    1e64:	bf ad       	ldd	r27, Y+63	; 0x3f
    1e66:	ee 97       	sbiw	r28, 0x3e	; 62
    1e68:	8a 8b       	std	Y+18, r24	; 0x12
    1e6a:	9b 8b       	std	Y+19, r25	; 0x13
    1e6c:	ac 8b       	std	Y+20, r26	; 0x14
    1e6e:	bd 8b       	std	Y+21, r27	; 0x15

00001e70 <.LM160>:
    1e70:	20 e0       	ldi	r18, 0x00	; 0
    1e72:	30 e0       	ldi	r19, 0x00	; 0
    1e74:	40 e8       	ldi	r20, 0x80	; 128
    1e76:	5f e3       	ldi	r21, 0x3F	; 63
    1e78:	6a 89       	ldd	r22, Y+18	; 0x12
    1e7a:	7b 89       	ldd	r23, Y+19	; 0x13
    1e7c:	8c 89       	ldd	r24, Y+20	; 0x14
    1e7e:	9d 89       	ldd	r25, Y+21	; 0x15
    1e80:	0e 94 38 11 	call	0x2270	; 0x2270 <__cmpsf2>
    1e84:	88 23       	and	r24, r24
    1e86:	2c f4       	brge	.+10     	; 0x1e92 <.L141>

00001e88 <.LM161>:
    1e88:	81 e0       	ldi	r24, 0x01	; 1
    1e8a:	90 e0       	ldi	r25, 0x00	; 0
    1e8c:	9f 8b       	std	Y+23, r25	; 0x17
    1e8e:	8e 8b       	std	Y+22, r24	; 0x16
    1e90:	71 c0       	rjmp	.+226    	; 0x1f74 <.L117>

00001e92 <.L141>:
    1e92:	20 e0       	ldi	r18, 0x00	; 0
    1e94:	3f ef       	ldi	r19, 0xFF	; 255
    1e96:	4f e7       	ldi	r20, 0x7F	; 127
    1e98:	57 e4       	ldi	r21, 0x47	; 71
    1e9a:	6a 89       	ldd	r22, Y+18	; 0x12
    1e9c:	7b 89       	ldd	r23, Y+19	; 0x13
    1e9e:	8c 89       	ldd	r24, Y+20	; 0x14
    1ea0:	9d 89       	ldd	r25, Y+21	; 0x15
    1ea2:	0e 94 90 12 	call	0x2520	; 0x2520 <__gesf2>
    1ea6:	18 16       	cp	r1, r24
    1ea8:	0c f0       	brlt	.+2      	; 0x1eac <.LM163>

00001eaa <L0^A>:
    1eaa:	4e c0       	rjmp	.+156    	; 0x1f48 <.L142>

00001eac <.LM163>:
    1eac:	20 e0       	ldi	r18, 0x00	; 0
    1eae:	30 e0       	ldi	r19, 0x00	; 0
    1eb0:	40 e2       	ldi	r20, 0x20	; 32
    1eb2:	51 e4       	ldi	r21, 0x41	; 65
    1eb4:	6e 85       	ldd	r22, Y+14	; 0x0e
    1eb6:	7f 85       	ldd	r23, Y+15	; 0x0f
    1eb8:	88 89       	ldd	r24, Y+16	; 0x10
    1eba:	99 89       	ldd	r25, Y+17	; 0x11
    1ebc:	0e 94 95 12 	call	0x252a	; 0x252a <__mulsf3>
    1ec0:	c2 58       	subi	r28, 0x82	; 130
    1ec2:	df 4f       	sbci	r29, 0xFF	; 255
    1ec4:	68 83       	st	Y, r22
    1ec6:	79 83       	std	Y+1, r23	; 0x01
    1ec8:	8a 83       	std	Y+2, r24	; 0x02
    1eca:	9b 83       	std	Y+3, r25	; 0x03
    1ecc:	ce 57       	subi	r28, 0x7E	; 126
    1ece:	d0 40       	sbci	r29, 0x00	; 0
    1ed0:	c2 58       	subi	r28, 0x82	; 130
    1ed2:	df 4f       	sbci	r29, 0xFF	; 255
    1ed4:	88 81       	ld	r24, Y
    1ed6:	99 81       	ldd	r25, Y+1	; 0x01
    1ed8:	aa 81       	ldd	r26, Y+2	; 0x02
    1eda:	bb 81       	ldd	r27, Y+3	; 0x03
    1edc:	ce 57       	subi	r28, 0x7E	; 126
    1ede:	d0 40       	sbci	r29, 0x00	; 0
    1ee0:	22 96       	adiw	r28, 0x02	; 2
    1ee2:	8c af       	std	Y+60, r24	; 0x3c
    1ee4:	9d af       	std	Y+61, r25	; 0x3d
    1ee6:	ae af       	std	Y+62, r26	; 0x3e
    1ee8:	bf af       	std	Y+63, r27	; 0x3f
    1eea:	22 97       	sbiw	r28, 0x02	; 2

00001eec <.LM164>:
    1eec:	22 96       	adiw	r28, 0x02	; 2
    1eee:	6c ad       	ldd	r22, Y+60	; 0x3c
    1ef0:	7d ad       	ldd	r23, Y+61	; 0x3d
    1ef2:	8e ad       	ldd	r24, Y+62	; 0x3e
    1ef4:	9f ad       	ldd	r25, Y+63	; 0x3f
    1ef6:	22 97       	sbiw	r28, 0x02	; 2
    1ef8:	0e 94 af 11 	call	0x235e	; 0x235e <__fixunssfsi>
    1efc:	ce 57       	subi	r28, 0x7E	; 126
    1efe:	df 4f       	sbci	r29, 0xFF	; 255
    1f00:	68 83       	st	Y, r22
    1f02:	79 83       	std	Y+1, r23	; 0x01
    1f04:	8a 83       	std	Y+2, r24	; 0x02
    1f06:	9b 83       	std	Y+3, r25	; 0x03
    1f08:	c2 58       	subi	r28, 0x82	; 130
    1f0a:	d0 40       	sbci	r29, 0x00	; 0
    1f0c:	ce 57       	subi	r28, 0x7E	; 126
    1f0e:	df 4f       	sbci	r29, 0xFF	; 255
    1f10:	a8 81       	ld	r26, Y
    1f12:	b9 81       	ldd	r27, Y+1	; 0x01
    1f14:	c2 58       	subi	r28, 0x82	; 130
    1f16:	d0 40       	sbci	r29, 0x00	; 0
    1f18:	bf 8b       	std	Y+23, r27	; 0x17
    1f1a:	ae 8b       	std	Y+22, r26	; 0x16

00001f1c <.LM165>:
    1f1c:	10 c0       	rjmp	.+32     	; 0x1f3e <.L120>

00001f1e <.L121>:
    1f1e:	88 ec       	ldi	r24, 0xC8	; 200
    1f20:	90 e0       	ldi	r25, 0x00	; 0
    1f22:	99 8f       	std	Y+25, r25	; 0x19
    1f24:	88 8f       	std	Y+24, r24	; 0x18

00001f26 <.LM166>:
    1f26:	88 8d       	ldd	r24, Y+24	; 0x18
    1f28:	99 8d       	ldd	r25, Y+25	; 0x19

00001f2a <.L1^B19>:
    1f2a:	01 97       	sbiw	r24, 0x01	; 1
    1f2c:	f1 f7       	brne	.-4      	; 0x1f2a <.L1^B19>
    1f2e:	99 8f       	std	Y+25, r25	; 0x19
    1f30:	88 8f       	std	Y+24, r24	; 0x18

00001f32 <.LM167>:
	...

00001f34 <.LM168>:
    1f34:	8e 89       	ldd	r24, Y+22	; 0x16
    1f36:	9f 89       	ldd	r25, Y+23	; 0x17
    1f38:	01 97       	sbiw	r24, 0x01	; 1
    1f3a:	9f 8b       	std	Y+23, r25	; 0x17
    1f3c:	8e 8b       	std	Y+22, r24	; 0x16

00001f3e <.L120>:
    1f3e:	8e 89       	ldd	r24, Y+22	; 0x16
    1f40:	9f 89       	ldd	r25, Y+23	; 0x17
    1f42:	89 2b       	or	r24, r25
    1f44:	61 f7       	brne	.-40     	; 0x1f1e <.L121>

00001f46 <.LM170>:
    1f46:	21 c0       	rjmp	.+66     	; 0x1f8a <.L122>

00001f48 <.L142>:
    1f48:	6a 89       	ldd	r22, Y+18	; 0x12
    1f4a:	7b 89       	ldd	r23, Y+19	; 0x13
    1f4c:	8c 89       	ldd	r24, Y+20	; 0x14
    1f4e:	9d 89       	ldd	r25, Y+21	; 0x15
    1f50:	0e 94 af 11 	call	0x235e	; 0x235e <__fixunssfsi>
    1f54:	ca 57       	subi	r28, 0x7A	; 122
    1f56:	df 4f       	sbci	r29, 0xFF	; 255
    1f58:	68 83       	st	Y, r22
    1f5a:	79 83       	std	Y+1, r23	; 0x01
    1f5c:	8a 83       	std	Y+2, r24	; 0x02
    1f5e:	9b 83       	std	Y+3, r25	; 0x03
    1f60:	c6 58       	subi	r28, 0x86	; 134
    1f62:	d0 40       	sbci	r29, 0x00	; 0
    1f64:	ca 57       	subi	r28, 0x7A	; 122
    1f66:	df 4f       	sbci	r29, 0xFF	; 255
    1f68:	88 81       	ld	r24, Y
    1f6a:	99 81       	ldd	r25, Y+1	; 0x01
    1f6c:	c6 58       	subi	r28, 0x86	; 134
    1f6e:	d0 40       	sbci	r29, 0x00	; 0
    1f70:	9f 8b       	std	Y+23, r25	; 0x17
    1f72:	8e 8b       	std	Y+22, r24	; 0x16

00001f74 <.L117>:
    1f74:	8e 89       	ldd	r24, Y+22	; 0x16
    1f76:	9f 89       	ldd	r25, Y+23	; 0x17
    1f78:	9b 8f       	std	Y+27, r25	; 0x1b
    1f7a:	8a 8f       	std	Y+26, r24	; 0x1a

00001f7c <.LM172>:
    1f7c:	8a 8d       	ldd	r24, Y+26	; 0x1a
    1f7e:	9b 8d       	ldd	r25, Y+27	; 0x1b

00001f80 <.L1^B20>:
    1f80:	01 97       	sbiw	r24, 0x01	; 1
    1f82:	f1 f7       	brne	.-4      	; 0x1f80 <.L1^B20>
    1f84:	9b 8f       	std	Y+27, r25	; 0x1b
    1f86:	8a 8f       	std	Y+26, r24	; 0x1a

00001f88 <.LM173>:
	...

00001f8a <.L122>:
    1f8a:	49 c0       	rjmp	.+146    	; 0x201e <.L123>

00001f8c <.L140>:
    1f8c:	20 e0       	ldi	r18, 0x00	; 0
    1f8e:	30 e0       	ldi	r19, 0x00	; 0
    1f90:	4f e7       	ldi	r20, 0x7F	; 127
    1f92:	53 e4       	ldi	r21, 0x43	; 67
    1f94:	6d 81       	ldd	r22, Y+5	; 0x05
    1f96:	7e 81       	ldd	r23, Y+6	; 0x06
    1f98:	8f 81       	ldd	r24, Y+7	; 0x07
    1f9a:	98 85       	ldd	r25, Y+8	; 0x08
    1f9c:	0e 94 90 12 	call	0x2520	; 0x2520 <__gesf2>
    1fa0:	18 16       	cp	r1, r24
    1fa2:	14 f5       	brge	.+68     	; 0x1fe8 <.L143>

00001fa4 <.LM176>:
    1fa4:	69 85       	ldd	r22, Y+9	; 0x09
    1fa6:	7a 85       	ldd	r23, Y+10	; 0x0a
    1fa8:	8b 85       	ldd	r24, Y+11	; 0x0b
    1faa:	9c 85       	ldd	r25, Y+12	; 0x0c
    1fac:	0e 94 af 11 	call	0x235e	; 0x235e <__fixunssfsi>
    1fb0:	c6 57       	subi	r28, 0x76	; 118
    1fb2:	df 4f       	sbci	r29, 0xFF	; 255
    1fb4:	68 83       	st	Y, r22
    1fb6:	79 83       	std	Y+1, r23	; 0x01
    1fb8:	8a 83       	std	Y+2, r24	; 0x02
    1fba:	9b 83       	std	Y+3, r25	; 0x03
    1fbc:	ca 58       	subi	r28, 0x8A	; 138
    1fbe:	d0 40       	sbci	r29, 0x00	; 0
    1fc0:	c6 57       	subi	r28, 0x76	; 118
    1fc2:	df 4f       	sbci	r29, 0xFF	; 255
    1fc4:	a8 81       	ld	r26, Y
    1fc6:	b9 81       	ldd	r27, Y+1	; 0x01
    1fc8:	ca 58       	subi	r28, 0x8A	; 138
    1fca:	d0 40       	sbci	r29, 0x00	; 0
    1fcc:	bd 8f       	std	Y+29, r27	; 0x1d
    1fce:	ac 8f       	std	Y+28, r26	; 0x1c
    1fd0:	8c 8d       	ldd	r24, Y+28	; 0x1c
    1fd2:	9d 8d       	ldd	r25, Y+29	; 0x1d
    1fd4:	9f 8f       	std	Y+31, r25	; 0x1f
    1fd6:	8e 8f       	std	Y+30, r24	; 0x1e

00001fd8 <.LM177>:
    1fd8:	8e 8d       	ldd	r24, Y+30	; 0x1e
    1fda:	9f 8d       	ldd	r25, Y+31	; 0x1f

00001fdc <.L1^B21>:
    1fdc:	01 97       	sbiw	r24, 0x01	; 1
    1fde:	f1 f7       	brne	.-4      	; 0x1fdc <.L1^B21>
    1fe0:	9f 8f       	std	Y+31, r25	; 0x1f
    1fe2:	8e 8f       	std	Y+30, r24	; 0x1e

00001fe4 <.LM178>:
	...

00001fe6 <.LM179>:
    1fe6:	1b c0       	rjmp	.+54     	; 0x201e <.L123>

00001fe8 <.L143>:
    1fe8:	6d 81       	ldd	r22, Y+5	; 0x05
    1fea:	7e 81       	ldd	r23, Y+6	; 0x06
    1fec:	8f 81       	ldd	r24, Y+7	; 0x07
    1fee:	98 85       	ldd	r25, Y+8	; 0x08
    1ff0:	0e 94 af 11 	call	0x235e	; 0x235e <__fixunssfsi>
    1ff4:	c2 57       	subi	r28, 0x72	; 114
    1ff6:	df 4f       	sbci	r29, 0xFF	; 255
    1ff8:	68 83       	st	Y, r22
    1ffa:	79 83       	std	Y+1, r23	; 0x01
    1ffc:	8a 83       	std	Y+2, r24	; 0x02
    1ffe:	9b 83       	std	Y+3, r25	; 0x03
    2000:	ce 58       	subi	r28, 0x8E	; 142
    2002:	d0 40       	sbci	r29, 0x00	; 0
    2004:	c2 57       	subi	r28, 0x72	; 114
    2006:	df 4f       	sbci	r29, 0xFF	; 255
    2008:	b8 81       	ld	r27, Y
    200a:	ce 58       	subi	r28, 0x8E	; 142
    200c:	d0 40       	sbci	r29, 0x00	; 0
    200e:	bd 87       	std	Y+13, r27	; 0x0d

00002010 <.L112>:
    2010:	8d 85       	ldd	r24, Y+13	; 0x0d
    2012:	88 a3       	std	Y+32, r24	; 0x20

00002014 <.LM181>:
    2014:	88 a1       	ldd	r24, Y+32	; 0x20

00002016 <.L1^B22>:
    2016:	8a 95       	dec	r24
    2018:	f1 f7       	brne	.-4      	; 0x2016 <.L1^B22>
    201a:	88 a3       	std	Y+32, r24	; 0x20

0000201c <.LM182>:
	...

0000201e <.L123>:
    201e:	40 e0       	ldi	r20, 0x00	; 0
    2020:	61 e0       	ldi	r22, 0x01	; 1
    2022:	81 e0       	ldi	r24, 0x01	; 1
    2024:	0e 94 f4 03 	call	0x7e8	; 0x7e8 <GPIO_writePin>

00002028 <.LM184>:
    2028:	00 00       	nop
    202a:	cf 56       	subi	r28, 0x6F	; 111
    202c:	df 4f       	sbci	r29, 0xFF	; 255
    202e:	0f b6       	in	r0, 0x3f	; 63
    2030:	f8 94       	cli
    2032:	de bf       	out	0x3e, r29	; 62
    2034:	0f be       	out	0x3f, r0	; 63
    2036:	cd bf       	out	0x3d, r28	; 61
    2038:	df 91       	pop	r29
    203a:	cf 91       	pop	r28
    203c:	08 95       	ret

0000203e <LCD_displayString>:
    203e:	cf 93       	push	r28
    2040:	df 93       	push	r29
    2042:	00 d0       	rcall	.+0      	; 0x2044 <L0^A>

00002044 <L0^A>:
    2044:	00 d0       	rcall	.+0      	; 0x2046 <L0^A>

00002046 <L0^A>:
    2046:	cd b7       	in	r28, 0x3d	; 61
    2048:	de b7       	in	r29, 0x3e	; 62
    204a:	9c 83       	std	Y+4, r25	; 0x04
    204c:	8b 83       	std	Y+3, r24	; 0x03

0000204e <.LM186>:
    204e:	1a 82       	std	Y+2, r1	; 0x02
    2050:	19 82       	std	Y+1, r1	; 0x01

00002052 <.LM187>:
    2052:	0f c0       	rjmp	.+30     	; 0x2072 <.L145>

00002054 <.L146>:
    2054:	89 81       	ldd	r24, Y+1	; 0x01
    2056:	9a 81       	ldd	r25, Y+2	; 0x02
    2058:	2b 81       	ldd	r18, Y+3	; 0x03
    205a:	3c 81       	ldd	r19, Y+4	; 0x04
    205c:	82 0f       	add	r24, r18
    205e:	93 1f       	adc	r25, r19

00002060 <.LM189>:
    2060:	fc 01       	movw	r30, r24
    2062:	80 81       	ld	r24, Z
    2064:	0e 94 3e 0d 	call	0x1a7c	; 0x1a7c <LCD_displayCharacter>

00002068 <.LM190>:
    2068:	89 81       	ldd	r24, Y+1	; 0x01
    206a:	9a 81       	ldd	r25, Y+2	; 0x02
    206c:	01 96       	adiw	r24, 0x01	; 1
    206e:	9a 83       	std	Y+2, r25	; 0x02
    2070:	89 83       	std	Y+1, r24	; 0x01

00002072 <.L145>:
    2072:	89 81       	ldd	r24, Y+1	; 0x01
    2074:	9a 81       	ldd	r25, Y+2	; 0x02
    2076:	2b 81       	ldd	r18, Y+3	; 0x03
    2078:	3c 81       	ldd	r19, Y+4	; 0x04
    207a:	82 0f       	add	r24, r18
    207c:	93 1f       	adc	r25, r19

0000207e <.LM192>:
    207e:	fc 01       	movw	r30, r24
    2080:	80 81       	ld	r24, Z

00002082 <.LM193>:
    2082:	88 23       	and	r24, r24
    2084:	39 f7       	brne	.-50     	; 0x2054 <.L146>

00002086 <.LM194>:
    2086:	00 00       	nop
    2088:	00 00       	nop
    208a:	0f 90       	pop	r0
    208c:	0f 90       	pop	r0
    208e:	0f 90       	pop	r0
    2090:	0f 90       	pop	r0
    2092:	df 91       	pop	r29
    2094:	cf 91       	pop	r28
    2096:	08 95       	ret

00002098 <LCD_moveCursor>:
    2098:	cf 93       	push	r28
    209a:	df 93       	push	r29
    209c:	00 d0       	rcall	.+0      	; 0x209e <L0^A>

0000209e <L0^A>:
    209e:	cd b7       	in	r28, 0x3d	; 61
    20a0:	de b7       	in	r29, 0x3e	; 62
    20a2:	89 83       	std	Y+1, r24	; 0x01
    20a4:	6a 83       	std	Y+2, r22	; 0x02

000020a6 <.LM196>:
    20a6:	89 81       	ldd	r24, Y+1	; 0x01
    20a8:	88 2f       	mov	r24, r24
    20aa:	90 e0       	ldi	r25, 0x00	; 0
    20ac:	84 30       	cpi	r24, 0x04	; 4
    20ae:	91 05       	cpc	r25, r1
    20b0:	f1 f0       	breq	.+60     	; 0x20ee <.L148>
    20b2:	85 30       	cpi	r24, 0x05	; 5
    20b4:	91 05       	cpc	r25, r1
    20b6:	04 f5       	brge	.+64     	; 0x20f8 <.L149>
    20b8:	83 30       	cpi	r24, 0x03	; 3
    20ba:	91 05       	cpc	r25, r1
    20bc:	99 f0       	breq	.+38     	; 0x20e4 <.L150>
    20be:	84 30       	cpi	r24, 0x04	; 4
    20c0:	91 05       	cpc	r25, r1
    20c2:	d4 f4       	brge	.+52     	; 0x20f8 <.L149>
    20c4:	81 30       	cpi	r24, 0x01	; 1
    20c6:	91 05       	cpc	r25, r1
    20c8:	19 f0       	breq	.+6      	; 0x20d0 <.L151>
    20ca:	02 97       	sbiw	r24, 0x02	; 2
    20cc:	31 f0       	breq	.+12     	; 0x20da <.L152>

000020ce <.LM197>:
    20ce:	14 c0       	rjmp	.+40     	; 0x20f8 <.L149>

000020d0 <.L151>:
    20d0:	8a 81       	ldd	r24, Y+2	; 0x02
    20d2:	80 58       	subi	r24, 0x80	; 128
    20d4:	0e 94 cb 07 	call	0xf96	; 0xf96 <LCD_sendCommand>

000020d8 <.LM199>:
    20d8:	0f c0       	rjmp	.+30     	; 0x20f8 <.L149>

000020da <.L152>:
    20da:	8a 81       	ldd	r24, Y+2	; 0x02
    20dc:	80 54       	subi	r24, 0x40	; 64
    20de:	0e 94 cb 07 	call	0xf96	; 0xf96 <LCD_sendCommand>

000020e2 <.LM201>:
    20e2:	0a c0       	rjmp	.+20     	; 0x20f8 <.L149>

000020e4 <.L150>:
    20e4:	8a 81       	ldd	r24, Y+2	; 0x02
    20e6:	80 57       	subi	r24, 0x70	; 112
    20e8:	0e 94 cb 07 	call	0xf96	; 0xf96 <LCD_sendCommand>

000020ec <.LM203>:
    20ec:	05 c0       	rjmp	.+10     	; 0x20f8 <.L149>

000020ee <.L148>:
    20ee:	8a 81       	ldd	r24, Y+2	; 0x02
    20f0:	80 53       	subi	r24, 0x30	; 48
    20f2:	0e 94 cb 07 	call	0xf96	; 0xf96 <LCD_sendCommand>

000020f6 <.LM205>:
	...

000020f8 <.L149>:
    20f8:	00 00       	nop
    20fa:	0f 90       	pop	r0
    20fc:	0f 90       	pop	r0
    20fe:	df 91       	pop	r29
    2100:	cf 91       	pop	r28
    2102:	08 95       	ret

00002104 <LCD_displayStringRowColumn>:
    2104:	cf 93       	push	r28
    2106:	df 93       	push	r29
    2108:	00 d0       	rcall	.+0      	; 0x210a <L0^A>

0000210a <L0^A>:
    210a:	00 d0       	rcall	.+0      	; 0x210c <L0^A>

0000210c <L0^A>:
    210c:	cd b7       	in	r28, 0x3d	; 61
    210e:	de b7       	in	r29, 0x3e	; 62
    2110:	89 83       	std	Y+1, r24	; 0x01
    2112:	6a 83       	std	Y+2, r22	; 0x02
    2114:	5c 83       	std	Y+4, r21	; 0x04
    2116:	4b 83       	std	Y+3, r20	; 0x03

00002118 <.LM208>:
    2118:	6a 81       	ldd	r22, Y+2	; 0x02
    211a:	89 81       	ldd	r24, Y+1	; 0x01
    211c:	0e 94 4c 10 	call	0x2098	; 0x2098 <LCD_moveCursor>

00002120 <.LM209>:
    2120:	8b 81       	ldd	r24, Y+3	; 0x03
    2122:	9c 81       	ldd	r25, Y+4	; 0x04
    2124:	0e 94 1f 10 	call	0x203e	; 0x203e <LCD_displayString>

00002128 <.LM210>:
    2128:	00 00       	nop
    212a:	0f 90       	pop	r0
    212c:	0f 90       	pop	r0
    212e:	0f 90       	pop	r0
    2130:	0f 90       	pop	r0
    2132:	df 91       	pop	r29
    2134:	cf 91       	pop	r28
    2136:	08 95       	ret

00002138 <LCD_intgerToString>:
    2138:	cf 93       	push	r28
    213a:	df 93       	push	r29
    213c:	cd b7       	in	r28, 0x3d	; 61
    213e:	de b7       	in	r29, 0x3e	; 62
    2140:	66 97       	sbiw	r28, 0x16	; 22
    2142:	0f b6       	in	r0, 0x3f	; 63
    2144:	f8 94       	cli
    2146:	de bf       	out	0x3e, r29	; 62
    2148:	0f be       	out	0x3f, r0	; 63
    214a:	cd bf       	out	0x3d, r28	; 61
    214c:	9e 8b       	std	Y+22, r25	; 0x16
    214e:	8d 8b       	std	Y+21, r24	; 0x15

00002150 <.LM212>:
    2150:	8d 89       	ldd	r24, Y+21	; 0x15
    2152:	9e 89       	ldd	r25, Y+22	; 0x16
    2154:	4a e0       	ldi	r20, 0x0A	; 10
    2156:	50 e0       	ldi	r21, 0x00	; 0
    2158:	9e 01       	movw	r18, r28
    215a:	2f 5f       	subi	r18, 0xFF	; 255
    215c:	3f 4f       	sbci	r19, 0xFF	; 255
    215e:	b9 01       	movw	r22, r18
    2160:	0e 94 02 13 	call	0x2604	; 0x2604 <itoa>

00002164 <.LM213>:
    2164:	ce 01       	movw	r24, r28
    2166:	01 96       	adiw	r24, 0x01	; 1
    2168:	0e 94 1f 10 	call	0x203e	; 0x203e <LCD_displayString>

0000216c <.LM214>:
    216c:	00 00       	nop
    216e:	66 96       	adiw	r28, 0x16	; 22
    2170:	0f b6       	in	r0, 0x3f	; 63
    2172:	f8 94       	cli
    2174:	de bf       	out	0x3e, r29	; 62
    2176:	0f be       	out	0x3f, r0	; 63
    2178:	cd bf       	out	0x3d, r28	; 61
    217a:	df 91       	pop	r29
    217c:	cf 91       	pop	r28
    217e:	08 95       	ret

00002180 <LCD_clearScreen>:
    2180:	cf 93       	push	r28
    2182:	df 93       	push	r29
    2184:	cd b7       	in	r28, 0x3d	; 61
    2186:	de b7       	in	r29, 0x3e	; 62

00002188 <.LM216>:
    2188:	81 e0       	ldi	r24, 0x01	; 1
    218a:	0e 94 cb 07 	call	0xf96	; 0xf96 <LCD_sendCommand>

0000218e <.LM217>:
    218e:	00 00       	nop
    2190:	df 91       	pop	r29
    2192:	cf 91       	pop	r28
    2194:	08 95       	ret

00002196 <__subsf3>:
    2196:	50 58       	subi	r21, 0x80	; 128

00002198 <__addsf3>:
    2198:	bb 27       	eor	r27, r27
    219a:	aa 27       	eor	r26, r26
    219c:	0e 94 e3 10 	call	0x21c6	; 0x21c6 <__addsf3x>
    21a0:	0c 94 56 12 	jmp	0x24ac	; 0x24ac <__fp_round>

000021a4 <.L0^B1>:
    21a4:	0e 94 48 12 	call	0x2490	; 0x2490 <__fp_pscA>
    21a8:	38 f0       	brcs	.+14     	; 0x21b8 <.L_nan>
    21aa:	0e 94 4f 12 	call	0x249e	; 0x249e <__fp_pscB>
    21ae:	20 f0       	brcs	.+8      	; 0x21b8 <.L_nan>
    21b0:	39 f4       	brne	.+14     	; 0x21c0 <.L_inf>
    21b2:	9f 3f       	cpi	r25, 0xFF	; 255
    21b4:	19 f4       	brne	.+6      	; 0x21bc <.L_infB>
    21b6:	26 f4       	brtc	.+8      	; 0x21c0 <.L_inf>

000021b8 <.L_nan>:
    21b8:	0c 94 45 12 	jmp	0x248a	; 0x248a <__fp_nan>

000021bc <.L_infB>:
    21bc:	0e f4       	brtc	.+2      	; 0x21c0 <.L_inf>
    21be:	e0 95       	com	r30

000021c0 <.L_inf>:
    21c0:	e7 fb       	bst	r30, 7
    21c2:	0c 94 3f 12 	jmp	0x247e	; 0x247e <__fp_inf>

000021c6 <__addsf3x>:
    21c6:	e9 2f       	mov	r30, r25
    21c8:	0e 94 67 12 	call	0x24ce	; 0x24ce <__fp_split3>
    21cc:	58 f3       	brcs	.-42     	; 0x21a4 <.L0^B1>
    21ce:	ba 17       	cp	r27, r26
    21d0:	62 07       	cpc	r22, r18
    21d2:	73 07       	cpc	r23, r19
    21d4:	84 07       	cpc	r24, r20
    21d6:	95 07       	cpc	r25, r21
    21d8:	20 f0       	brcs	.+8      	; 0x21e2 <.L2^B1>
    21da:	79 f4       	brne	.+30     	; 0x21fa <.L4^B1>
    21dc:	a6 f5       	brtc	.+104    	; 0x2246 <.L_add>
    21de:	0c 94 89 12 	jmp	0x2512	; 0x2512 <__fp_zero>

000021e2 <.L2^B1>:
    21e2:	0e f4       	brtc	.+2      	; 0x21e6 <.L3^B1>
    21e4:	e0 95       	com	r30

000021e6 <.L3^B1>:
    21e6:	0b 2e       	mov	r0, r27
    21e8:	ba 2f       	mov	r27, r26
    21ea:	a0 2d       	mov	r26, r0
    21ec:	0b 01       	movw	r0, r22
    21ee:	b9 01       	movw	r22, r18
    21f0:	90 01       	movw	r18, r0
    21f2:	0c 01       	movw	r0, r24
    21f4:	ca 01       	movw	r24, r20
    21f6:	a0 01       	movw	r20, r0
    21f8:	11 24       	eor	r1, r1

000021fa <.L4^B1>:
    21fa:	ff 27       	eor	r31, r31
    21fc:	59 1b       	sub	r21, r25

000021fe <.L5^B1>:
    21fe:	99 f0       	breq	.+38     	; 0x2226 <.L7^B1>
    2200:	59 3f       	cpi	r21, 0xF9	; 249
    2202:	50 f4       	brcc	.+20     	; 0x2218 <.L6^B1>
    2204:	50 3e       	cpi	r21, 0xE0	; 224
    2206:	68 f1       	brcs	.+90     	; 0x2262 <.L_ret>
    2208:	1a 16       	cp	r1, r26
    220a:	f0 40       	sbci	r31, 0x00	; 0
    220c:	a2 2f       	mov	r26, r18
    220e:	23 2f       	mov	r18, r19
    2210:	34 2f       	mov	r19, r20
    2212:	44 27       	eor	r20, r20
    2214:	58 5f       	subi	r21, 0xF8	; 248
    2216:	f3 cf       	rjmp	.-26     	; 0x21fe <.L5^B1>

00002218 <.L6^B1>:
    2218:	46 95       	lsr	r20
    221a:	37 95       	ror	r19
    221c:	27 95       	ror	r18
    221e:	a7 95       	ror	r26
    2220:	f0 40       	sbci	r31, 0x00	; 0
    2222:	53 95       	inc	r21
    2224:	c9 f7       	brne	.-14     	; 0x2218 <.L6^B1>

00002226 <.L7^B1>:
    2226:	7e f4       	brtc	.+30     	; 0x2246 <.L_add>
    2228:	1f 16       	cp	r1, r31
    222a:	ba 0b       	sbc	r27, r26
    222c:	62 0b       	sbc	r22, r18
    222e:	73 0b       	sbc	r23, r19
    2230:	84 0b       	sbc	r24, r20
    2232:	ba f0       	brmi	.+46     	; 0x2262 <.L_ret>

00002234 <.L8^B1>:
    2234:	91 50       	subi	r25, 0x01	; 1
    2236:	a1 f0       	breq	.+40     	; 0x2260 <.L9^B1>
    2238:	ff 0f       	add	r31, r31
    223a:	bb 1f       	adc	r27, r27
    223c:	66 1f       	adc	r22, r22
    223e:	77 1f       	adc	r23, r23
    2240:	88 1f       	adc	r24, r24
    2242:	c2 f7       	brpl	.-16     	; 0x2234 <.L8^B1>
    2244:	0e c0       	rjmp	.+28     	; 0x2262 <.L_ret>

00002246 <.L_add>:
    2246:	ba 0f       	add	r27, r26
    2248:	62 1f       	adc	r22, r18
    224a:	73 1f       	adc	r23, r19
    224c:	84 1f       	adc	r24, r20
    224e:	48 f4       	brcc	.+18     	; 0x2262 <.L_ret>
    2250:	87 95       	ror	r24
    2252:	77 95       	ror	r23
    2254:	67 95       	ror	r22
    2256:	b7 95       	ror	r27
    2258:	f7 95       	ror	r31
    225a:	9e 3f       	cpi	r25, 0xFE	; 254
    225c:	08 f0       	brcs	.+2      	; 0x2260 <.L9^B1>
    225e:	b0 cf       	rjmp	.-160    	; 0x21c0 <.L_inf>

00002260 <.L9^B1>:
    2260:	93 95       	inc	r25

00002262 <.L_ret>:
    2262:	88 0f       	add	r24, r24
    2264:	08 f0       	brcs	.+2      	; 0x2268 <.L1^B1>
    2266:	99 27       	eor	r25, r25

00002268 <.L1^B1>:
    2268:	ee 0f       	add	r30, r30
    226a:	97 95       	ror	r25
    226c:	87 95       	ror	r24
    226e:	08 95       	ret

00002270 <__cmpsf2>:
    2270:	0e 94 1b 12 	call	0x2436	; 0x2436 <__fp_cmp>
    2274:	08 f4       	brcc	.+2      	; 0x2278 <.L1^B1>
    2276:	81 e0       	ldi	r24, 0x01	; 1

00002278 <.L1^B1>:
    2278:	08 95       	ret

0000227a <__divsf3>:
    227a:	0e 94 51 11 	call	0x22a2	; 0x22a2 <__divsf3x>
    227e:	0c 94 56 12 	jmp	0x24ac	; 0x24ac <__fp_round>

00002282 <.L0^B1>:
    2282:	0e 94 4f 12 	call	0x249e	; 0x249e <__fp_pscB>
    2286:	58 f0       	brcs	.+22     	; 0x229e <.L_nan>
    2288:	0e 94 48 12 	call	0x2490	; 0x2490 <__fp_pscA>
    228c:	40 f0       	brcs	.+16     	; 0x229e <.L_nan>
    228e:	29 f4       	brne	.+10     	; 0x229a <.L_zr>
    2290:	5f 3f       	cpi	r21, 0xFF	; 255
    2292:	29 f0       	breq	.+10     	; 0x229e <.L_nan>

00002294 <.L_inf>:
    2294:	0c 94 3f 12 	jmp	0x247e	; 0x247e <__fp_inf>

00002298 <.L1^B1>:
    2298:	51 11       	cpse	r21, r1

0000229a <.L_zr>:
    229a:	0c 94 8a 12 	jmp	0x2514	; 0x2514 <__fp_szero>

0000229e <.L_nan>:
    229e:	0c 94 45 12 	jmp	0x248a	; 0x248a <__fp_nan>

000022a2 <__divsf3x>:
    22a2:	0e 94 67 12 	call	0x24ce	; 0x24ce <__fp_split3>
    22a6:	68 f3       	brcs	.-38     	; 0x2282 <.L0^B1>

000022a8 <__divsf3_pse>:
    22a8:	99 23       	and	r25, r25
    22aa:	b1 f3       	breq	.-20     	; 0x2298 <.L1^B1>
    22ac:	55 23       	and	r21, r21
    22ae:	91 f3       	breq	.-28     	; 0x2294 <.L_inf>
    22b0:	95 1b       	sub	r25, r21
    22b2:	55 0b       	sbc	r21, r21
    22b4:	bb 27       	eor	r27, r27
    22b6:	aa 27       	eor	r26, r26

000022b8 <.L2^B1>:
    22b8:	62 17       	cp	r22, r18
    22ba:	73 07       	cpc	r23, r19
    22bc:	84 07       	cpc	r24, r20
    22be:	38 f0       	brcs	.+14     	; 0x22ce <.L3^B1>
    22c0:	9f 5f       	subi	r25, 0xFF	; 255
    22c2:	5f 4f       	sbci	r21, 0xFF	; 255
    22c4:	22 0f       	add	r18, r18
    22c6:	33 1f       	adc	r19, r19
    22c8:	44 1f       	adc	r20, r20
    22ca:	aa 1f       	adc	r26, r26
    22cc:	a9 f3       	breq	.-22     	; 0x22b8 <.L2^B1>

000022ce <.L3^B1>:
    22ce:	35 d0       	rcall	.+106    	; 0x233a <.L_div>
    22d0:	0e 2e       	mov	r0, r30
    22d2:	3a f0       	brmi	.+14     	; 0x22e2 <.L5^B1>

000022d4 <.L4^B1>:
    22d4:	e0 e8       	ldi	r30, 0x80	; 128
    22d6:	32 d0       	rcall	.+100    	; 0x233c <.L_div1>
    22d8:	91 50       	subi	r25, 0x01	; 1
    22da:	50 40       	sbci	r21, 0x00	; 0
    22dc:	e6 95       	lsr	r30
    22de:	00 1c       	adc	r0, r0
    22e0:	ca f7       	brpl	.-14     	; 0x22d4 <.L4^B1>

000022e2 <.L5^B1>:
    22e2:	2b d0       	rcall	.+86     	; 0x233a <.L_div>
    22e4:	fe 2f       	mov	r31, r30
    22e6:	29 d0       	rcall	.+82     	; 0x233a <.L_div>
    22e8:	66 0f       	add	r22, r22
    22ea:	77 1f       	adc	r23, r23
    22ec:	88 1f       	adc	r24, r24
    22ee:	bb 1f       	adc	r27, r27
    22f0:	26 17       	cp	r18, r22
    22f2:	37 07       	cpc	r19, r23
    22f4:	48 07       	cpc	r20, r24
    22f6:	ab 07       	cpc	r26, r27
    22f8:	b0 e8       	ldi	r27, 0x80	; 128
    22fa:	09 f0       	breq	.+2      	; 0x22fe <.L4^B2>
    22fc:	bb 0b       	sbc	r27, r27

000022fe <.L4^B2>:
    22fe:	80 2d       	mov	r24, r0
    2300:	bf 01       	movw	r22, r30
    2302:	ff 27       	eor	r31, r31
    2304:	93 58       	subi	r25, 0x83	; 131
    2306:	5f 4f       	sbci	r21, 0xFF	; 255
    2308:	3a f0       	brmi	.+14     	; 0x2318 <.L13^B1>
    230a:	9e 3f       	cpi	r25, 0xFE	; 254
    230c:	51 05       	cpc	r21, r1
    230e:	78 f0       	brcs	.+30     	; 0x232e <.L15^B1>
    2310:	0c 94 3f 12 	jmp	0x247e	; 0x247e <__fp_inf>

00002314 <.L12^B1>:
    2314:	0c 94 8a 12 	jmp	0x2514	; 0x2514 <__fp_szero>

00002318 <.L13^B1>:
    2318:	5f 3f       	cpi	r21, 0xFF	; 255
    231a:	e4 f3       	brlt	.-8      	; 0x2314 <.L12^B1>
    231c:	98 3e       	cpi	r25, 0xE8	; 232
    231e:	d4 f3       	brlt	.-12     	; 0x2314 <.L12^B1>

00002320 <.L14^B1>:
    2320:	86 95       	lsr	r24
    2322:	77 95       	ror	r23
    2324:	67 95       	ror	r22
    2326:	b7 95       	ror	r27
    2328:	f7 95       	ror	r31
    232a:	9f 5f       	subi	r25, 0xFF	; 255
    232c:	c9 f7       	brne	.-14     	; 0x2320 <.L14^B1>

0000232e <.L15^B1>:
    232e:	88 0f       	add	r24, r24
    2330:	91 1d       	adc	r25, r1
    2332:	96 95       	lsr	r25
    2334:	87 95       	ror	r24
    2336:	97 f9       	bld	r25, 7
    2338:	08 95       	ret

0000233a <.L_div>:
    233a:	e1 e0       	ldi	r30, 0x01	; 1

0000233c <.L_div1>:
    233c:	66 0f       	add	r22, r22
    233e:	77 1f       	adc	r23, r23
    2340:	88 1f       	adc	r24, r24
    2342:	bb 1f       	adc	r27, r27
    2344:	62 17       	cp	r22, r18
    2346:	73 07       	cpc	r23, r19
    2348:	84 07       	cpc	r24, r20
    234a:	ba 07       	cpc	r27, r26
    234c:	20 f0       	brcs	.+8      	; 0x2356 <.L2^B2>
    234e:	62 1b       	sub	r22, r18
    2350:	73 0b       	sbc	r23, r19
    2352:	84 0b       	sbc	r24, r20
    2354:	ba 0b       	sbc	r27, r26

00002356 <.L2^B2>:
    2356:	ee 1f       	adc	r30, r30
    2358:	88 f7       	brcc	.-30     	; 0x233c <.L_div1>
    235a:	e0 95       	com	r30
    235c:	08 95       	ret

0000235e <__fixunssfsi>:
    235e:	0e 94 6f 12 	call	0x24de	; 0x24de <__fp_splitA>
    2362:	88 f0       	brcs	.+34     	; 0x2386 <.L_err>
    2364:	9f 57       	subi	r25, 0x7F	; 127
    2366:	98 f0       	brcs	.+38     	; 0x238e <.L_zr>
    2368:	b9 2f       	mov	r27, r25
    236a:	99 27       	eor	r25, r25
    236c:	b7 51       	subi	r27, 0x17	; 23
    236e:	b0 f0       	brcs	.+44     	; 0x239c <.L4^B1>
    2370:	e1 f0       	breq	.+56     	; 0x23aa <.L_sign>

00002372 <.L1^B1>:
    2372:	66 0f       	add	r22, r22
    2374:	77 1f       	adc	r23, r23
    2376:	88 1f       	adc	r24, r24
    2378:	99 1f       	adc	r25, r25
    237a:	1a f0       	brmi	.+6      	; 0x2382 <.L2^B1>
    237c:	ba 95       	dec	r27
    237e:	c9 f7       	brne	.-14     	; 0x2372 <.L1^B1>
    2380:	14 c0       	rjmp	.+40     	; 0x23aa <.L_sign>

00002382 <.L2^B1>:
    2382:	b1 30       	cpi	r27, 0x01	; 1
    2384:	91 f0       	breq	.+36     	; 0x23aa <.L_sign>

00002386 <.L_err>:
    2386:	0e 94 89 12 	call	0x2512	; 0x2512 <__fp_zero>
    238a:	b1 e0       	ldi	r27, 0x01	; 1
    238c:	08 95       	ret

0000238e <.L_zr>:
    238e:	0c 94 89 12 	jmp	0x2512	; 0x2512 <__fp_zero>

00002392 <.L3^B1>:
    2392:	67 2f       	mov	r22, r23
    2394:	78 2f       	mov	r23, r24
    2396:	88 27       	eor	r24, r24
    2398:	b8 5f       	subi	r27, 0xF8	; 248
    239a:	39 f0       	breq	.+14     	; 0x23aa <.L_sign>

0000239c <.L4^B1>:
    239c:	b9 3f       	cpi	r27, 0xF9	; 249
    239e:	cc f3       	brlt	.-14     	; 0x2392 <.L3^B1>

000023a0 <.L5^B1>:
    23a0:	86 95       	lsr	r24
    23a2:	77 95       	ror	r23
    23a4:	67 95       	ror	r22
    23a6:	b3 95       	inc	r27
    23a8:	d9 f7       	brne	.-10     	; 0x23a0 <.L5^B1>

000023aa <.L_sign>:
    23aa:	3e f4       	brtc	.+14     	; 0x23ba <.L6^B1>
    23ac:	90 95       	com	r25
    23ae:	80 95       	com	r24
    23b0:	70 95       	com	r23
    23b2:	61 95       	neg	r22
    23b4:	7f 4f       	sbci	r23, 0xFF	; 255
    23b6:	8f 4f       	sbci	r24, 0xFF	; 255
    23b8:	9f 4f       	sbci	r25, 0xFF	; 255

000023ba <.L6^B1>:
    23ba:	08 95       	ret

000023bc <__floatunsisf>:
    23bc:	e8 94       	clt
    23be:	09 c0       	rjmp	.+18     	; 0x23d2 <.L1^B1>

000023c0 <__floatsisf>:
    23c0:	97 fb       	bst	r25, 7
    23c2:	3e f4       	brtc	.+14     	; 0x23d2 <.L1^B1>
    23c4:	90 95       	com	r25
    23c6:	80 95       	com	r24
    23c8:	70 95       	com	r23
    23ca:	61 95       	neg	r22
    23cc:	7f 4f       	sbci	r23, 0xFF	; 255
    23ce:	8f 4f       	sbci	r24, 0xFF	; 255
    23d0:	9f 4f       	sbci	r25, 0xFF	; 255

000023d2 <.L1^B1>:
    23d2:	99 23       	and	r25, r25
    23d4:	a9 f0       	breq	.+42     	; 0x2400 <.L4^B1>
    23d6:	f9 2f       	mov	r31, r25
    23d8:	96 e9       	ldi	r25, 0x96	; 150
    23da:	bb 27       	eor	r27, r27

000023dc <.L2^B1>:
    23dc:	93 95       	inc	r25
    23de:	f6 95       	lsr	r31
    23e0:	87 95       	ror	r24
    23e2:	77 95       	ror	r23
    23e4:	67 95       	ror	r22
    23e6:	b7 95       	ror	r27
    23e8:	f1 11       	cpse	r31, r1
    23ea:	f8 cf       	rjmp	.-16     	; 0x23dc <.L2^B1>
    23ec:	fa f4       	brpl	.+62     	; 0x242c <.L_pack>
    23ee:	bb 0f       	add	r27, r27
    23f0:	11 f4       	brne	.+4      	; 0x23f6 <.L3^B1>
    23f2:	60 ff       	sbrs	r22, 0
    23f4:	1b c0       	rjmp	.+54     	; 0x242c <.L_pack>

000023f6 <.L3^B1>:
    23f6:	6f 5f       	subi	r22, 0xFF	; 255
    23f8:	7f 4f       	sbci	r23, 0xFF	; 255
    23fa:	8f 4f       	sbci	r24, 0xFF	; 255
    23fc:	9f 4f       	sbci	r25, 0xFF	; 255
    23fe:	16 c0       	rjmp	.+44     	; 0x242c <.L_pack>

00002400 <.L4^B1>:
    2400:	88 23       	and	r24, r24
    2402:	11 f0       	breq	.+4      	; 0x2408 <.L5^B1>
    2404:	96 e9       	ldi	r25, 0x96	; 150
    2406:	11 c0       	rjmp	.+34     	; 0x242a <.L8^B1>

00002408 <.L5^B1>:
    2408:	77 23       	and	r23, r23
    240a:	21 f0       	breq	.+8      	; 0x2414 <.L6^B1>
    240c:	9e e8       	ldi	r25, 0x8E	; 142
    240e:	87 2f       	mov	r24, r23
    2410:	76 2f       	mov	r23, r22
    2412:	05 c0       	rjmp	.+10     	; 0x241e <.L7^B1>

00002414 <.L6^B1>:
    2414:	66 23       	and	r22, r22
    2416:	71 f0       	breq	.+28     	; 0x2434 <.L9^B1>
    2418:	96 e8       	ldi	r25, 0x86	; 134
    241a:	86 2f       	mov	r24, r22
    241c:	70 e0       	ldi	r23, 0x00	; 0

0000241e <.L7^B1>:
    241e:	60 e0       	ldi	r22, 0x00	; 0
    2420:	2a f0       	brmi	.+10     	; 0x242c <.L_pack>

00002422 <.L10^B1>:
    2422:	9a 95       	dec	r25
    2424:	66 0f       	add	r22, r22
    2426:	77 1f       	adc	r23, r23
    2428:	88 1f       	adc	r24, r24

0000242a <.L8^B1>:
    242a:	da f7       	brpl	.-10     	; 0x2422 <.L10^B1>

0000242c <.L_pack>:
    242c:	88 0f       	add	r24, r24
    242e:	96 95       	lsr	r25
    2430:	87 95       	ror	r24
    2432:	97 f9       	bld	r25, 7

00002434 <.L9^B1>:
    2434:	08 95       	ret

00002436 <__fp_cmp>:
    2436:	99 0f       	add	r25, r25
    2438:	00 08       	sbc	r0, r0
    243a:	55 0f       	add	r21, r21
    243c:	aa 0b       	sbc	r26, r26
    243e:	e0 e8       	ldi	r30, 0x80	; 128
    2440:	fe ef       	ldi	r31, 0xFE	; 254
    2442:	16 16       	cp	r1, r22
    2444:	17 06       	cpc	r1, r23
    2446:	e8 07       	cpc	r30, r24
    2448:	f9 07       	cpc	r31, r25
    244a:	c0 f0       	brcs	.+48     	; 0x247c <.L9^B1>
    244c:	12 16       	cp	r1, r18
    244e:	13 06       	cpc	r1, r19
    2450:	e4 07       	cpc	r30, r20
    2452:	f5 07       	cpc	r31, r21
    2454:	98 f0       	brcs	.+38     	; 0x247c <.L9^B1>
    2456:	62 1b       	sub	r22, r18
    2458:	73 0b       	sbc	r23, r19
    245a:	84 0b       	sbc	r24, r20
    245c:	95 0b       	sbc	r25, r21
    245e:	39 f4       	brne	.+14     	; 0x246e <.L1^B1>
    2460:	0a 26       	eor	r0, r26
    2462:	61 f0       	breq	.+24     	; 0x247c <.L9^B1>
    2464:	23 2b       	or	r18, r19
    2466:	24 2b       	or	r18, r20
    2468:	25 2b       	or	r18, r21
    246a:	21 f4       	brne	.+8      	; 0x2474 <.L2^B1>
    246c:	08 95       	ret

0000246e <.L1^B1>:
    246e:	0a 26       	eor	r0, r26
    2470:	09 f4       	brne	.+2      	; 0x2474 <.L2^B1>
    2472:	a1 40       	sbci	r26, 0x01	; 1

00002474 <.L2^B1>:
    2474:	a6 95       	lsr	r26
    2476:	8f ef       	ldi	r24, 0xFF	; 255
    2478:	81 1d       	adc	r24, r1
    247a:	81 1d       	adc	r24, r1

0000247c <.L9^B1>:
    247c:	08 95       	ret

0000247e <__fp_inf>:
    247e:	97 f9       	bld	r25, 7
    2480:	9f 67       	ori	r25, 0x7F	; 127
    2482:	80 e8       	ldi	r24, 0x80	; 128
    2484:	70 e0       	ldi	r23, 0x00	; 0
    2486:	60 e0       	ldi	r22, 0x00	; 0
    2488:	08 95       	ret

0000248a <__fp_nan>:
    248a:	9f ef       	ldi	r25, 0xFF	; 255
    248c:	80 ec       	ldi	r24, 0xC0	; 192
    248e:	08 95       	ret

00002490 <__fp_pscA>:
    2490:	00 24       	eor	r0, r0
    2492:	0a 94       	dec	r0
    2494:	16 16       	cp	r1, r22
    2496:	17 06       	cpc	r1, r23
    2498:	18 06       	cpc	r1, r24
    249a:	09 06       	cpc	r0, r25
    249c:	08 95       	ret

0000249e <__fp_pscB>:
    249e:	00 24       	eor	r0, r0
    24a0:	0a 94       	dec	r0
    24a2:	12 16       	cp	r1, r18
    24a4:	13 06       	cpc	r1, r19
    24a6:	14 06       	cpc	r1, r20
    24a8:	05 06       	cpc	r0, r21
    24aa:	08 95       	ret

000024ac <__fp_round>:
    24ac:	09 2e       	mov	r0, r25
    24ae:	03 94       	inc	r0
    24b0:	00 0c       	add	r0, r0
    24b2:	11 f4       	brne	.+4      	; 0x24b8 <.L1^B1>
    24b4:	88 23       	and	r24, r24
    24b6:	52 f0       	brmi	.+20     	; 0x24cc <.L3^B1>

000024b8 <.L1^B1>:
    24b8:	bb 0f       	add	r27, r27
    24ba:	40 f4       	brcc	.+16     	; 0x24cc <.L3^B1>
    24bc:	bf 2b       	or	r27, r31
    24be:	11 f4       	brne	.+4      	; 0x24c4 <.L2^B1>
    24c0:	60 ff       	sbrs	r22, 0
    24c2:	04 c0       	rjmp	.+8      	; 0x24cc <.L3^B1>

000024c4 <.L2^B1>:
    24c4:	6f 5f       	subi	r22, 0xFF	; 255
    24c6:	7f 4f       	sbci	r23, 0xFF	; 255
    24c8:	8f 4f       	sbci	r24, 0xFF	; 255
    24ca:	9f 4f       	sbci	r25, 0xFF	; 255

000024cc <.L3^B1>:
    24cc:	08 95       	ret

000024ce <__fp_split3>:
    24ce:	57 fd       	sbrc	r21, 7
    24d0:	90 58       	subi	r25, 0x80	; 128
    24d2:	44 0f       	add	r20, r20
    24d4:	55 1f       	adc	r21, r21
    24d6:	59 f0       	breq	.+22     	; 0x24ee <.L4^B1>
    24d8:	5f 3f       	cpi	r21, 0xFF	; 255
    24da:	71 f0       	breq	.+28     	; 0x24f8 <.L5^B1>

000024dc <.L1^B1>:
    24dc:	47 95       	ror	r20

000024de <__fp_splitA>:
    24de:	88 0f       	add	r24, r24
    24e0:	97 fb       	bst	r25, 7
    24e2:	99 1f       	adc	r25, r25
    24e4:	61 f0       	breq	.+24     	; 0x24fe <.L6^B1>
    24e6:	9f 3f       	cpi	r25, 0xFF	; 255
    24e8:	79 f0       	breq	.+30     	; 0x2508 <.L7^B1>

000024ea <.L3^B1>:
    24ea:	87 95       	ror	r24
    24ec:	08 95       	ret

000024ee <.L4^B1>:
    24ee:	12 16       	cp	r1, r18
    24f0:	13 06       	cpc	r1, r19
    24f2:	14 06       	cpc	r1, r20
    24f4:	55 1f       	adc	r21, r21
    24f6:	f2 cf       	rjmp	.-28     	; 0x24dc <.L1^B1>

000024f8 <.L5^B1>:
    24f8:	46 95       	lsr	r20
    24fa:	f1 df       	rcall	.-30     	; 0x24de <__fp_splitA>
    24fc:	08 c0       	rjmp	.+16     	; 0x250e <.L8^B1>

000024fe <.L6^B1>:
    24fe:	16 16       	cp	r1, r22
    2500:	17 06       	cpc	r1, r23
    2502:	18 06       	cpc	r1, r24
    2504:	99 1f       	adc	r25, r25
    2506:	f1 cf       	rjmp	.-30     	; 0x24ea <.L3^B1>

00002508 <.L7^B1>:
    2508:	86 95       	lsr	r24
    250a:	71 05       	cpc	r23, r1
    250c:	61 05       	cpc	r22, r1

0000250e <.L8^B1>:
    250e:	08 94       	sec
    2510:	08 95       	ret

00002512 <__fp_zero>:
    2512:	e8 94       	clt

00002514 <__fp_szero>:
    2514:	bb 27       	eor	r27, r27
    2516:	66 27       	eor	r22, r22
    2518:	77 27       	eor	r23, r23
    251a:	cb 01       	movw	r24, r22
    251c:	97 f9       	bld	r25, 7
    251e:	08 95       	ret

00002520 <__gesf2>:
    2520:	0e 94 1b 12 	call	0x2436	; 0x2436 <__fp_cmp>
    2524:	08 f4       	brcc	.+2      	; 0x2528 <.L1^B1>
    2526:	8f ef       	ldi	r24, 0xFF	; 255

00002528 <.L1^B1>:
    2528:	08 95       	ret

0000252a <__mulsf3>:
    252a:	0e 94 a8 12 	call	0x2550	; 0x2550 <__mulsf3x>
    252e:	0c 94 56 12 	jmp	0x24ac	; 0x24ac <__fp_round>

00002532 <.L0^B1>:
    2532:	0e 94 48 12 	call	0x2490	; 0x2490 <__fp_pscA>
    2536:	38 f0       	brcs	.+14     	; 0x2546 <.L1^B1>
    2538:	0e 94 4f 12 	call	0x249e	; 0x249e <__fp_pscB>
    253c:	20 f0       	brcs	.+8      	; 0x2546 <.L1^B1>
    253e:	95 23       	and	r25, r21
    2540:	11 f0       	breq	.+4      	; 0x2546 <.L1^B1>
    2542:	0c 94 3f 12 	jmp	0x247e	; 0x247e <__fp_inf>

00002546 <.L1^B1>:
    2546:	0c 94 45 12 	jmp	0x248a	; 0x248a <__fp_nan>

0000254a <.L2^B1>:
    254a:	11 24       	eor	r1, r1
    254c:	0c 94 8a 12 	jmp	0x2514	; 0x2514 <__fp_szero>

00002550 <__mulsf3x>:
    2550:	0e 94 67 12 	call	0x24ce	; 0x24ce <__fp_split3>
    2554:	70 f3       	brcs	.-36     	; 0x2532 <.L0^B1>

00002556 <__mulsf3_pse>:
    2556:	95 9f       	mul	r25, r21
    2558:	c1 f3       	breq	.-16     	; 0x254a <.L2^B1>
    255a:	95 0f       	add	r25, r21
    255c:	50 e0       	ldi	r21, 0x00	; 0
    255e:	55 1f       	adc	r21, r21
    2560:	62 9f       	mul	r22, r18
    2562:	f0 01       	movw	r30, r0
    2564:	72 9f       	mul	r23, r18
    2566:	bb 27       	eor	r27, r27
    2568:	f0 0d       	add	r31, r0
    256a:	b1 1d       	adc	r27, r1
    256c:	63 9f       	mul	r22, r19
    256e:	aa 27       	eor	r26, r26
    2570:	f0 0d       	add	r31, r0
    2572:	b1 1d       	adc	r27, r1
    2574:	aa 1f       	adc	r26, r26
    2576:	64 9f       	mul	r22, r20
    2578:	66 27       	eor	r22, r22
    257a:	b0 0d       	add	r27, r0
    257c:	a1 1d       	adc	r26, r1
    257e:	66 1f       	adc	r22, r22
    2580:	82 9f       	mul	r24, r18
    2582:	22 27       	eor	r18, r18
    2584:	b0 0d       	add	r27, r0
    2586:	a1 1d       	adc	r26, r1
    2588:	62 1f       	adc	r22, r18
    258a:	73 9f       	mul	r23, r19
    258c:	b0 0d       	add	r27, r0
    258e:	a1 1d       	adc	r26, r1
    2590:	62 1f       	adc	r22, r18
    2592:	83 9f       	mul	r24, r19
    2594:	a0 0d       	add	r26, r0
    2596:	61 1d       	adc	r22, r1
    2598:	22 1f       	adc	r18, r18
    259a:	74 9f       	mul	r23, r20
    259c:	33 27       	eor	r19, r19
    259e:	a0 0d       	add	r26, r0
    25a0:	61 1d       	adc	r22, r1
    25a2:	23 1f       	adc	r18, r19
    25a4:	84 9f       	mul	r24, r20
    25a6:	60 0d       	add	r22, r0
    25a8:	21 1d       	adc	r18, r1
    25aa:	82 2f       	mov	r24, r18
    25ac:	76 2f       	mov	r23, r22
    25ae:	6a 2f       	mov	r22, r26
    25b0:	11 24       	eor	r1, r1
    25b2:	9f 57       	subi	r25, 0x7F	; 127
    25b4:	50 40       	sbci	r21, 0x00	; 0
    25b6:	9a f0       	brmi	.+38     	; 0x25de <.L13^B1>
    25b8:	f1 f0       	breq	.+60     	; 0x25f6 <.L15^B1>

000025ba <.L10^B1>:
    25ba:	88 23       	and	r24, r24
    25bc:	4a f0       	brmi	.+18     	; 0x25d0 <.L11^B1>
    25be:	ee 0f       	add	r30, r30
    25c0:	ff 1f       	adc	r31, r31
    25c2:	bb 1f       	adc	r27, r27
    25c4:	66 1f       	adc	r22, r22
    25c6:	77 1f       	adc	r23, r23
    25c8:	88 1f       	adc	r24, r24
    25ca:	91 50       	subi	r25, 0x01	; 1
    25cc:	50 40       	sbci	r21, 0x00	; 0
    25ce:	a9 f7       	brne	.-22     	; 0x25ba <.L10^B1>

000025d0 <.L11^B1>:
    25d0:	9e 3f       	cpi	r25, 0xFE	; 254
    25d2:	51 05       	cpc	r21, r1
    25d4:	80 f0       	brcs	.+32     	; 0x25f6 <.L15^B1>
    25d6:	0c 94 3f 12 	jmp	0x247e	; 0x247e <__fp_inf>

000025da <.L12^B1>:
    25da:	0c 94 8a 12 	jmp	0x2514	; 0x2514 <__fp_szero>

000025de <.L13^B1>:
    25de:	5f 3f       	cpi	r21, 0xFF	; 255
    25e0:	e4 f3       	brlt	.-8      	; 0x25da <.L12^B1>
    25e2:	98 3e       	cpi	r25, 0xE8	; 232
    25e4:	d4 f3       	brlt	.-12     	; 0x25da <.L12^B1>

000025e6 <.L14^B1>:
    25e6:	86 95       	lsr	r24
    25e8:	77 95       	ror	r23
    25ea:	67 95       	ror	r22
    25ec:	b7 95       	ror	r27
    25ee:	f7 95       	ror	r31
    25f0:	e7 95       	ror	r30
    25f2:	9f 5f       	subi	r25, 0xFF	; 255
    25f4:	c1 f7       	brne	.-16     	; 0x25e6 <.L14^B1>

000025f6 <.L15^B1>:
    25f6:	fe 2b       	or	r31, r30
    25f8:	88 0f       	add	r24, r24
    25fa:	91 1d       	adc	r25, r1
    25fc:	96 95       	lsr	r25
    25fe:	87 95       	ror	r24
    2600:	97 f9       	bld	r25, 7
    2602:	08 95       	ret

00002604 <itoa>:
    2604:	45 32       	cpi	r20, 0x25	; 37
    2606:	51 05       	cpc	r21, r1
    2608:	20 f4       	brcc	.+8      	; 0x2612 <.L1^B1>
    260a:	42 30       	cpi	r20, 0x02	; 2
    260c:	10 f0       	brcs	.+4      	; 0x2612 <.L1^B1>
    260e:	0c 94 0d 13 	jmp	0x261a	; 0x261a <__itoa_ncheck>

00002612 <.L1^B1>:
    2612:	fb 01       	movw	r30, r22
    2614:	10 82       	st	Z, r1
    2616:	cb 01       	movw	r24, r22
    2618:	08 95       	ret

0000261a <__itoa_ncheck>:
    261a:	bb 27       	eor	r27, r27
    261c:	4a 30       	cpi	r20, 0x0A	; 10
    261e:	31 f4       	brne	.+12     	; 0x262c <.L1^B1>
    2620:	99 23       	and	r25, r25
    2622:	22 f4       	brpl	.+8      	; 0x262c <.L1^B1>
    2624:	bd e2       	ldi	r27, 0x2D	; 45
    2626:	90 95       	com	r25
    2628:	81 95       	neg	r24
    262a:	9f 4f       	sbci	r25, 0xFF	; 255

0000262c <.L1^B1>:
    262c:	0c 94 19 13 	jmp	0x2632	; 0x2632 <__utoa_common>

00002630 <__utoa_ncheck>:
    2630:	bb 27       	eor	r27, r27

00002632 <__utoa_common>:
    2632:	fb 01       	movw	r30, r22
    2634:	55 27       	eor	r21, r21

00002636 <.L1^B1>:
    2636:	aa 27       	eor	r26, r26

00002638 <.L2^B1>:
    2638:	88 0f       	add	r24, r24
    263a:	99 1f       	adc	r25, r25
    263c:	aa 1f       	adc	r26, r26
    263e:	a4 17       	cp	r26, r20
    2640:	10 f0       	brcs	.+4      	; 0x2646 <.L3^B1>
    2642:	a4 1b       	sub	r26, r20
    2644:	83 95       	inc	r24

00002646 <.L3^B1>:
    2646:	50 51       	subi	r21, 0x10	; 16
    2648:	b9 f7       	brne	.-18     	; 0x2638 <.L2^B1>
    264a:	a0 5d       	subi	r26, 0xD0	; 208
    264c:	aa 33       	cpi	r26, 0x3A	; 58
    264e:	08 f0       	brcs	.+2      	; 0x2652 <.L4^B1>
    2650:	a9 5d       	subi	r26, 0xD9	; 217

00002652 <.L4^B1>:
    2652:	a1 93       	st	Z+, r26
    2654:	00 97       	sbiw	r24, 0x00	; 0
    2656:	79 f7       	brne	.-34     	; 0x2636 <.L1^B1>
    2658:	b1 11       	cpse	r27, r1
    265a:	b1 93       	st	Z+, r27
    265c:	11 92       	st	Z+, r1
    265e:	cb 01       	movw	r24, r22
    2660:	0c 94 32 13 	jmp	0x2664	; 0x2664 <strrev>

00002664 <strrev>:
    2664:	dc 01       	movw	r26, r24
    2666:	fc 01       	movw	r30, r24

00002668 <.L1^B1>:
    2668:	67 2f       	mov	r22, r23
    266a:	71 91       	ld	r23, Z+
    266c:	77 23       	and	r23, r23
    266e:	e1 f7       	brne	.-8      	; 0x2668 <.L1^B1>
    2670:	32 97       	sbiw	r30, 0x02	; 2
    2672:	04 c0       	rjmp	.+8      	; 0x267c <.L3^B1>

00002674 <.L2^B1>:
    2674:	7c 91       	ld	r23, X
    2676:	6d 93       	st	X+, r22
    2678:	70 83       	st	Z, r23
    267a:	62 91       	ld	r22, -Z

0000267c <.L3^B1>:
    267c:	ae 17       	cp	r26, r30
    267e:	bf 07       	cpc	r27, r31
    2680:	c8 f3       	brcs	.-14     	; 0x2674 <.L2^B1>
    2682:	08 95       	ret

00002684 <_exit>:
    2684:	f8 94       	cli

00002686 <__stop_program>:
    2686:	ff cf       	rjmp	.-2      	; 0x2686 <__stop_program>
